
nios_led2.elf:     file format elf32-littlenios2
nios_led2.elf
architecture: nios2:r1, flags 0x00000112:
EXEC_P, HAS_SYMS, D_PAGED
start address 0x00020224

Program Header:
    LOAD off    0x00001000 vaddr 0x00020000 paddr 0x00020000 align 2**12
         filesz 0x00000020 memsz 0x00000020 flags r-x
    LOAD off    0x00001020 vaddr 0x00020020 paddr 0x00020020 align 2**12
         filesz 0x00019ae8 memsz 0x00019ae8 flags r-x
    LOAD off    0x0001ab08 vaddr 0x00039b08 paddr 0x0003b6e8 align 2**12
         filesz 0x00001be0 memsz 0x00001be0 flags rw-
    LOAD off    0x000002c8 vaddr 0x0003d2c8 paddr 0x0003d2c8 align 2**12
         filesz 0x00000000 memsz 0x00000160 flags rw-

Sections:
Idx Name          Size      VMA       LMA       File off  Algn
  0 .entry        00000020  00020000  00020000  00001000  2**5
                  CONTENTS, ALLOC, LOAD, READONLY, CODE
  1 .exceptions   00000204  00020020  00020020  00001020  2**2
                  CONTENTS, ALLOC, LOAD, READONLY, CODE
  2 .text         00018f98  00020224  00020224  00001224  2**2
                  CONTENTS, ALLOC, LOAD, READONLY, CODE
  3 .rodata       0000094c  000391bc  000391bc  0001a1bc  2**2
                  CONTENTS, ALLOC, LOAD, READONLY, DATA
  4 .rwdata       00001be0  00039b08  0003b6e8  0001ab08  2**2
                  CONTENTS, ALLOC, LOAD, DATA, SMALL_DATA
  5 .bss          00000160  0003d2c8  0003d2c8  0001d2c8  2**2
                  ALLOC, SMALL_DATA
  6 .onchip_mem   00000000  0003d428  0003d428  0001c6e8  2**0
                  CONTENTS
  7 .comment      0000002d  00000000  00000000  0001c6e8  2**0
                  CONTENTS, READONLY
  8 .debug_aranges 00001560  00000000  00000000  0001c718  2**3
                  CONTENTS, READONLY, DEBUGGING, OCTETS
  9 .debug_info   000415ce  00000000  00000000  0001dc78  2**0
                  CONTENTS, READONLY, DEBUGGING, OCTETS
 10 .debug_abbrev 000106e9  00000000  00000000  0005f246  2**0
                  CONTENTS, READONLY, DEBUGGING, OCTETS
 11 .debug_line   0001903a  00000000  00000000  0006f92f  2**0
                  CONTENTS, READONLY, DEBUGGING, OCTETS
 12 .debug_frame  00002fec  00000000  00000000  0008896c  2**2
                  CONTENTS, READONLY, DEBUGGING, OCTETS
 13 .debug_str    00002e7d  00000000  00000000  0008b958  2**0
                  CONTENTS, READONLY, DEBUGGING, OCTETS
 14 .debug_alt_sim_info 00000010  00000000  00000000  0008e7d8  2**2
                  CONTENTS, READONLY, DEBUGGING, OCTETS
 15 .debug_ranges 00000070  00000000  00000000  0008e7e8  2**3
                  CONTENTS, READONLY, DEBUGGING, OCTETS
 16 .debug_line_str 00002835  00000000  00000000  0008e858  2**0
                  CONTENTS, READONLY, DEBUGGING, OCTETS
 17 .debug_loclists 0001f068  00000000  00000000  0009108d  2**0
                  CONTENTS, READONLY, DEBUGGING, OCTETS
 18 .debug_rnglists 00001ea1  00000000  00000000  000b00f5  2**0
                  CONTENTS, READONLY, DEBUGGING, OCTETS
 19 .thread_model 00000003  00000000  00000000  000b5f1e  2**0
                  CONTENTS, READONLY
 20 .cpu          00000003  00000000  00000000  000b5f21  2**0
                  CONTENTS, READONLY
 21 .qsys         00000001  00000000  00000000  000b5f24  2**0
                  CONTENTS, READONLY
 22 .simulation_enabled 00000001  00000000  00000000  000b5f25  2**0
                  CONTENTS, READONLY
 23 .sysid_hash   00000004  00000000  00000000  000b5f26  2**0
                  CONTENTS, READONLY
 24 .sysid_base   00000004  00000000  00000000  000b5f2a  2**0
                  CONTENTS, READONLY
 25 .sysid_time   00000004  00000000  00000000  000b5f2e  2**0
                  CONTENTS, READONLY
 26 .stderr_dev   00000009  00000000  00000000  000b5f32  2**0
                  CONTENTS, READONLY
 27 .stdin_dev    00000009  00000000  00000000  000b5f3b  2**0
                  CONTENTS, READONLY
 28 .stdout_dev   00000009  00000000  00000000  000b5f44  2**0
                  CONTENTS, READONLY
 29 .sopc_system_name 00000009  00000000  00000000  000b5f4d  2**0
                  CONTENTS, READONLY
 30 .quartus_project_dir 0000004e  00000000  00000000  000b5f56  2**0
                  CONTENTS, READONLY
 31 .jdi          0000490b  00000000  00000000  000b5fa4  2**0
                  CONTENTS, READONLY
 32 .sopcinfo     0005aacf  00000000  00000000  000ba8af  2**0
                  CONTENTS, READONLY
SYMBOL TABLE:
00020000 l    d  .entry	00000000 .entry
00020020 l    d  .exceptions	00000000 .exceptions
00020224 l    d  .text	00000000 .text
000391bc l    d  .rodata	00000000 .rodata
00039b08 l    d  .rwdata	00000000 .rwdata
0003d2c8 l    d  .bss	00000000 .bss
0003d428 l    d  .onchip_mem	00000000 .onchip_mem
00000000 l    d  .comment	00000000 .comment
00000000 l    d  .debug_aranges	00000000 .debug_aranges
00000000 l    d  .debug_info	00000000 .debug_info
00000000 l    d  .debug_abbrev	00000000 .debug_abbrev
00000000 l    d  .debug_line	00000000 .debug_line
00000000 l    d  .debug_frame	00000000 .debug_frame
00000000 l    d  .debug_str	00000000 .debug_str
00000000 l    d  .debug_alt_sim_info	00000000 .debug_alt_sim_info
00000000 l    d  .debug_ranges	00000000 .debug_ranges
00000000 l    d  .debug_line_str	00000000 .debug_line_str
00000000 l    d  .debug_loclists	00000000 .debug_loclists
00000000 l    d  .debug_rnglists	00000000 .debug_rnglists
00000000 l    df *ABS*	00000000 crt0.o
0002025c l       .text	00000000 alt_after_alt_main
00000000 l    df *ABS*	00000000 alt_irq_handler.c
00000000 l    df *ABS*	00000000 alt_instruction_exception_entry.c
00000000 l    df *ABS*	00000000 gpio.c
000391bc l     O .rodata	00000010 SSEG_HEX_TABLE.0
00000000 l    df *ABS*	00000000 main.c
0003d2c8 l     O .bss	00000004 current.1
0003b6a8 l     O .rwdata	00000001 led_pattern.0
00000000 l    df *ABS*	00000000 lib2-divmod.c
00000000 l    df *ABS*	00000000 fileno.c
00000000 l    df *ABS*	00000000 findfp.c
00020c9c l     F .text	00000008 __fp_lock
00020cb0 l     F .text	00000008 __fp_unlock
00020cb8 l     F .text	00000168 __sinit.part.0
00000000 l    df *ABS*	00000000 fwalk.c
00000000 l    df *ABS*	00000000 impure.c
00039b08 l     O .rwdata	00000424 impure_data
00000000 l    df *ABS*	00000000 mallocr.c
00000000 l    df *ABS*	00000000 memcpy.c
00000000 l    df *ABS*	00000000 memset.c
00000000 l    df *ABS*	00000000 printf.c
00000000 l    df *ABS*	00000000 puts.c
00000000 l    df *ABS*	00000000 sbrkr.c
00000000 l    df *ABS*	00000000 scanf.c
00000000 l    df *ABS*	00000000 stdio.c
00000000 l    df *ABS*	00000000 strlen.c
00000000 l    df *ABS*	00000000 vfprintf.c
00023f64 l     F .text	000000c0 __sbprintf
000392f4 l     O .rodata	00000010 blanks.1
000392e4 l     O .rodata	00000010 zeroes.0
00000000 l    df *ABS*	00000000 vfscanf.c
0003930a l     O .rodata	00000022 basefix.0
00000000 l    df *ABS*	00000000 writer.c
00000000 l    df *ABS*	00000000 wsetup.c
00000000 l    df *ABS*	00000000 closer.c
00000000 l    df *ABS*	00000000 ctype_.c
00000000 l    df *ABS*	00000000 dtoa.c
00025bd8 l     F .text	00000220 quorem
00000000 l    df *ABS*	00000000 fclose.c
00000000 l    df *ABS*	00000000 fflush.c
00000000 l    df *ABS*	00000000 fread.c
00000000 l    df *ABS*	00000000 mallocr.c
00000000 l    df *ABS*	00000000 fvwrite.c
00000000 l    df *ABS*	00000000 int_errno.c
00000000 l    df *ABS*	00000000 iswspace.c
00000000 l    df *ABS*	00000000 iswspace_l.c
00000000 l    df *ABS*	00000000 locale.c
00000000 l    df *ABS*	00000000 localeconv.c
00000000 l    df *ABS*	00000000 lseekr.c
00000000 l    df *ABS*	00000000 makebuf.c
00000000 l    df *ABS*	00000000 mbrtowc.c
00000000 l    df *ABS*	00000000 mbtowc_r.c
00000000 l    df *ABS*	00000000 memchr.c
00000000 l    df *ABS*	00000000 memmove.c
00000000 l    df *ABS*	00000000 mprec.c
00039664 l     O .rodata	0000000c p05.0
00000000 l    df *ABS*	00000000 readr.c
00000000 l    df *ABS*	00000000 mallocr.c
00000000 l    df *ABS*	00000000 refill.c
0002a3b8 l     F .text	0000001c lflush
00000000 l    df *ABS*	00000000 sccl.c
00000000 l    df *ABS*	00000000 sprintf.c
00000000 l    df *ABS*	00000000 strcmp.c
00000000 l    df *ABS*	00000000 strtod.c
000397c0 l     O .rodata	00000028 tinytens
000397ac l     O .rodata	00000014 fpi.1
00039798 l     O .rodata	00000014 fpinan.0
00000000 l    df *ABS*	00000000 strtol.c
0002c110 l     F .text	00000264 _strtol_l.constprop.0
00000000 l    df *ABS*	00000000 strtoll.c
0002c3b0 l     F .text	000002c8 _strtoll_l.constprop.0
00000000 l    df *ABS*	00000000 strtoul.c
0002c6b4 l     F .text	00000270 _strtoul_l.constprop.0
00000000 l    df *ABS*	00000000 strtoull.c
0002c960 l     F .text	0000031c _strtoull_l.constprop.0
00000000 l    df *ABS*	00000000 vfprintf.c
000397f8 l     O .rodata	00000010 blanks.1
000397e8 l     O .rodata	00000010 zeroes.0
00000000 l    df *ABS*	00000000 ungetc.c
00000000 l    df *ABS*	00000000 vfprintf.c
0002eec4 l     F .text	000000f4 __sprint_r.part.0
00030248 l     F .text	000000c0 __sbprintf
00039818 l     O .rodata	00000010 blanks.1
00039808 l     O .rodata	00000010 zeroes.0
00000000 l    df *ABS*	00000000 wctomb_r.c
00000000 l    df *ABS*	00000000 assert.c
00000000 l    df *ABS*	00000000 mallocr.c
00000000 l    df *ABS*	00000000 errno.c
00000000 l    df *ABS*	00000000 fiprintf.c
00000000 l    df *ABS*	00000000 fputwc.c
00000000 l    df *ABS*	00000000 fstatr.c
00000000 l    df *ABS*	00000000 gdtoa-gethex.c
000307d8 l     F .text	000000dc rshift
00000000 l    df *ABS*	00000000 gdtoa-hexnan.c
00000000 l    df *ABS*	00000000 isattyr.c
00000000 l    df *ABS*	00000000 lnumeric.c
0003b6bc l     O .rwdata	00000002 numempty
00000000 l    df *ABS*	00000000 strncmp.c
00000000 l    df *ABS*	00000000 vfprintf.c
000399cc l     O .rodata	00000010 blanks.1
000399bc l     O .rodata	00000010 zeroes.0
00000000 l    df *ABS*	00000000 vfiprintfr_1.c
00000000 l    df *ABS*	00000000 wbuf.c
00000000 l    df *ABS*	00000000 wcrtomb.c
00000000 l    df *ABS*	00000000 abort.c
00000000 l    df *ABS*	00000000 signal.c
00000000 l    df *ABS*	00000000 signalr.c
00000000 l    df *ABS*	00000000 libgcc2.c
00000000 l    df *ABS*	00000000 libgcc2.c
00000000 l    df *ABS*	00000000 libgcc2.c
00000000 l    df *ABS*	00000000 libgcc2.c
00000000 l    df *ABS*	00000000 libgcc2.c
00000000 l    df *ABS*	00000000 libgcc2.c
00000000 l    df *ABS*	00000000 libgcc2.c
00000000 l    df *ABS*	00000000 lib2-mul.c
00000000 l    df *ABS*	00000000 lesf2.c
00000000 l    df *ABS*	00000000 unordsf2.c
00000000 l    df *ABS*	00000000 adddf3.c
00000000 l    df *ABS*	00000000 divdf3.c
00000000 l    df *ABS*	00000000 eqdf2.c
00000000 l    df *ABS*	00000000 gedf2.c
00000000 l    df *ABS*	00000000 ledf2.c
00000000 l    df *ABS*	00000000 muldf3.c
00000000 l    df *ABS*	00000000 subdf3.c
00000000 l    df *ABS*	00000000 unorddf2.c
00000000 l    df *ABS*	00000000 fixdfsi.c
00000000 l    df *ABS*	00000000 floatsidf.c
00000000 l    df *ABS*	00000000 floatunsidf.c
00000000 l    df *ABS*	00000000 truncdfsf2.c
00000000 l    df *ABS*	00000000 libgcc2.c
00000000 l    df *ABS*	00000000 libgcc2.c
00000000 l    df *ABS*	00000000 alt_close.c
00036810 l     F .text	0000003c alt_get_errno
00000000 l    df *ABS*	00000000 alt_dev.c
00036928 l     F .text	0000002c alt_dev_null_write
00000000 l    df *ABS*	00000000 alt_errno.c
00000000 l    df *ABS*	00000000 alt_exit.c
00000000 l    df *ABS*	00000000 alt_fcntl.c
0003698c l     F .text	0000003c alt_get_errno
00000000 l    df *ABS*	00000000 alt_fstat.c
00036af8 l     F .text	0000003c alt_get_errno
00000000 l    df *ABS*	00000000 alt_getpid.c
00000000 l    df *ABS*	00000000 alt_isatty.c
00036c10 l     F .text	0000003c alt_get_errno
00000000 l    df *ABS*	00000000 alt_kill.c
00036cfc l     F .text	0000003c alt_get_errno
00000000 l    df *ABS*	00000000 alt_load.c
00036e28 l     F .text	00000068 alt_load_section
00000000 l    df *ABS*	00000000 alt_lseek.c
00036f14 l     F .text	0000003c alt_get_errno
00000000 l    df *ABS*	00000000 alt_main.c
00000000 l    df *ABS*	00000000 alt_malloc_lock.c
00000000 l    df *ABS*	00000000 alt_open.c
000370f4 l     F .text	0000003c alt_get_errno
00037130 l     F .text	000000dc alt_file_locked
00000000 l    df *ABS*	00000000 alt_read.c
0003736c l     F .text	0000003c alt_get_errno
00000000 l    df *ABS*	00000000 alt_release_fd.c
00000000 l    df *ABS*	00000000 alt_sbrk.c
0003b6d8 l     O .rwdata	00000004 heap_end
00000000 l    df *ABS*	00000000 alt_write.c
000375d8 l     F .text	0000003c alt_get_errno
00000000 l    df *ABS*	00000000 alt_sys_init.c
00037718 l     F .text	00000034 alt_dev_reg
0003a648 l     O .rwdata	00001060 jtag_uart
00000000 l    df *ABS*	00000000 altera_avalon_jtag_uart_fd.c
00000000 l    df *ABS*	00000000 altera_avalon_jtag_uart_init.c
00037a10 l     F .text	0000020c altera_avalon_jtag_uart_irq
00037c1c l     F .text	000000a0 altera_avalon_jtag_uart_timeout
00000000 l    df *ABS*	00000000 altera_avalon_jtag_uart_ioctl.c
00000000 l    df *ABS*	00000000 altera_avalon_jtag_uart_read.c
00000000 l    df *ABS*	00000000 altera_avalon_jtag_uart_write.c
00000000 l    df *ABS*	00000000 altera_avalon_timer_sc.c
00038260 l     F .text	0000007c alt_avalon_timer_sc_irq
00000000 l    df *ABS*	00000000 alt_alarm_start.c
00000000 l    df *ABS*	00000000 alt_dcache_flush_all.c
00000000 l    df *ABS*	00000000 alt_dev_llist_insert.c
000384e0 l     F .text	0000003c alt_get_errno
00000000 l    df *ABS*	00000000 alt_do_ctors.c
00000000 l    df *ABS*	00000000 alt_do_dtors.c
00000000 l    df *ABS*	00000000 alt_find_dev.c
00000000 l    df *ABS*	00000000 alt_find_file.c
00000000 l    df *ABS*	00000000 alt_get_fd.c
00000000 l    df *ABS*	00000000 alt_icache_flush_all.c
00000000 l    df *ABS*	00000000 alt_iic.c
00000000 l    df *ABS*	00000000 alt_iic_isr_register.c
00000000 l    df *ABS*	00000000 alt_io_redirect.c
00038b94 l     F .text	000000d4 alt_open_fd
00000000 l    df *ABS*	00000000 alt_irq_vars.c
00000000 l    df *ABS*	00000000 alt_tick.c
00000000 l    df *ABS*	00000000 altera_nios2_gen2_irq.c
00000000 l    df *ABS*	00000000 atexit.c
00000000 l    df *ABS*	00000000 exit.c
00000000 l    df *ABS*	00000000 memcmp.c
00000000 l    df *ABS*	00000000 __atexit.c
00000000 l    df *ABS*	00000000 __call_atexit.c
0003d2fc g     O .bss	00000004 alt_instruction_exception_handler
00029c98 g     F .text	00000070 _mprec_log10
00029d84 g     F .text	00000060 __any_on
00031460 g     F .text	00000058 _isatty_r
00039670 g     O .rodata	00000028 __mprec_tinytens
00037030 g     F .text	0000007c alt_main
00021bb0 g     F .text	000000cc _puts_r
0003d328 g     O .bss	00000100 alt_irq
00028614 g     F .text	00000064 _lseek_r
0003b6e8 g       *ABS*	00000000 __flash_rwdata_start
000350c0 g     F .text	00000080 .hidden __eqdf2
0003d428 g       *ABS*	00000000 __alt_heap_start
000331dc g     F .text	00000070 .hidden __floatdidf
00032efc g     F .text	00000060 _kill_r
00021b78 g     F .text	00000038 printf
00032904 g     F .text	0000006c _wcrtomb_r
00032a6c g     F .text	00000098 _signal_r
00021e2c g     F .text	0000005c __sseek
00020fe8 g     F .text	00000010 __sinit
000327a4 g     F .text	00000148 __swbuf_r
00028500 g     F .text	00000074 _setlocale_r
00020e20 g     F .text	00000078 __sfmoreglue
0002eeac g     F .text	00000018 ungetc
000370d0 g     F .text	00000024 __malloc_unlock
0002cc80 g     F .text	0000001c strtoull_l
0002be84 g     F .text	0000000c _strtod_r
00028ae0 g     F .text	0000012c memmove
00020fd4 g     F .text	00000014 _cleanup
000209ec g     F .text	00000098 led_flash_v1
00028c0c g     F .text	000000a4 _Balloc
00035140 g     F .text	000000e8 .hidden __gtdf2
00038eb4 g     F .text	00000024 altera_nios2_gen2_irq_init
00030514 g     F .text	0000000c __errno
00020000 g     F .entry	0000000c __reset
000285f4 g     F .text	00000008 __localeconv_l
00020020 g       *ABS*	00000000 __flash_exceptions_start
00030778 g     F .text	00000060 _fstat_r
0003d2d8 g     O .bss	00000004 errno
0002594c g     F .text	0000001c __svfscanf
00021da4 g     F .text	00000008 __seofread
0003179c g     F .text	00001004 ___svfiprintf_internal_r
0003d2e4 g     O .bss	00000004 alt_argv
000436a8 g       *ABS*	00000000 _gp
00036bf0 g     F .text	00000020 getpid
00020804 g     F .text	000000f0 jtaguart_disp_msg_v1
0003a4c8 g     O .rwdata	00000180 alt_fd_list
0003868c g     F .text	00000090 alt_find_dev
00021954 g     F .text	00000100 memcpy
000311d0 g     F .text	00000290 __hexnan
00020ca4 g     F .text	0000000c _cleanup_r
00036500 g     F .text	000000b8 .hidden __floatsidf
00038c68 g     F .text	0000007c alt_io_redirect
00035228 g     F .text	000000e8 .hidden __ltdf2
0002c67c g     F .text	0000001c strtoll_l
000391bc g       *ABS*	00000000 __DTOR_END__
00021c7c g     F .text	00000010 puts
00038ed8 g     F .text	00000074 alt_exception_cause_generated_bad_addr
00028934 g     F .text	00000090 mbrtowc
00025968 g     F .text	00000050 _vfscanf_r
00029bf4 g     F .text	000000a4 __ratio
0003022c g     F .text	0000001c __vfiprintf_internal
00037e18 g     F .text	00000220 altera_avalon_jtag_uart_read
00021b48 g     F .text	00000030 _printf_r
00020b78 g     F .text	00000064 .hidden __udivsi3
00036c4c g     F .text	000000b0 isatty
00032b04 g     F .text	000000c4 _raise_r
000284d4 g     F .text	00000008 iswspace
00030344 g     F .text	00000064 __assert_func
000396c0 g     O .rodata	000000c8 __mprec_tens
0002c698 g     F .text	0000001c strtoll
00033da0 g     F .text	000000b4 .hidden __lesf2
00033064 g     F .text	00000074 .hidden __fixunsdfsi
0003d2d4 g     O .bss	00000004 __malloc_top_pad
00032f5c g     F .text	00000004 _getpid_r
0002c944 g     F .text	0000001c strtoul
000285fc g     F .text	0000000c _localeconv_r
0002cc7c g     F .text	00000004 _strtoull_r
0002907c g     F .text	000000b0 __i2b
00028008 g     F .text	000004cc __sfvwrite_r
00032bc8 g     F .text	000000bc __sigtramp_r
00021c8c g     F .text	00000058 _sbrk_r
00029de4 g     F .text	00000064 _read_r
0003b6d0 g     O .rwdata	00000004 alt_max_fd
00027554 g     F .text	000000f8 _fclose_r
000278e4 g     F .text	00000084 fflush
0003d2d0 g     O .bss	00000004 __malloc_max_sbrked_mem
00033ea0 g     F .text	0000090c .hidden __adddf3
000299a4 g     F .text	000000f8 __b2d
0003381c g     F .text	0000055c .hidden __umoddi3
00036f50 g     F .text	000000e0 lseek
0003b6ac g     O .rwdata	00000004 _global_impure_ptr
00029e48 g     F .text	00000570 _realloc_r
0003d428 g       *ABS*	00000000 __bss_end
00038aac g     F .text	000000e8 alt_iic_isr_register
0002c378 g     F .text	0000001c strtol_l
00038d88 g     F .text	0000012c alt_tick
000398b0 g     O .rodata	00000100 __hexdig
0003324c g     F .text	000005d0 .hidden __udivdi3
000306dc g     F .text	00000024 _fputwc_r
00039698 g     O .rodata	00000028 __mprec_bigtens
00028e30 g     F .text	00000138 __s2b
000329f8 g     F .text	00000018 abort
000365b8 g     F .text	00000090 .hidden __floatunsidf
000296c0 g     F .text	00000058 __mcmp
00021008 g     F .text	00000014 __fp_lock_all
00038a60 g     F .text	0000004c alt_ic_irq_enabled
00038ce4 g     F .text	000000a4 alt_alarm_stop
0002c394 g     F .text	0000001c strtol
0003d2ec g     O .bss	00000004 alt_irq_active
00020000 g       *ABS*	00000000 __alt_mem_onchip_mem
000200fc g     F .exceptions	000000c8 alt_irq_handler
0003a4a0 g     O .rwdata	00000028 alt_dev_null
0002a858 g     F .text	0000162c _strtod_l
00031180 g     F .text	00000050 __match
000384c0 g     F .text	00000020 alt_dcache_flush_all
00028f68 g     F .text	00000064 __hi0bits
00036480 g     F .text	00000080 .hidden __fixdfsi
0002beac g     F .text	00000020 strtod
0003b6e8 g       *ABS*	00000000 __ram_rwdata_end
0003b6c8 g     O .rwdata	00000008 alt_dev_list
00037614 g     F .text	00000104 write
0002032c g     F .text	00000094 jtaguart_wr_str
00039b08 g       *ABS*	00000000 __ram_rodata_end
00036b34 g     F .text	000000bc fstat
00036d38 g     F .text	000000f0 kill
00035228 g     F .text	000000e8 .hidden __ledf2
0002becc g     F .text	00000120 strtof_l
000293f0 g     F .text	00000148 __pow5mult
0002efd0 g     F .text	0000125c ___vfiprintf_internal_r
00020bdc g     F .text	0000005c .hidden __umodsi3
00021d20 g     F .text	00000030 _scanf_r
0003d428 g       *ABS*	00000000 end
00037950 g     F .text	000000c0 altera_avalon_jtag_uart_init
000201c4 g     F .exceptions	00000060 alt_instruction_exception_entry
000391bc g       *ABS*	00000000 __CTOR_LIST__
00040000 g       *ABS*	00000000 __alt_stack_pointer
000382dc g     F .text	00000084 alt_avalon_timer_sc_init
000367c0 g     F .text	00000050 .hidden __clzsi2
00038038 g     F .text	00000228 altera_avalon_jtag_uart_write
00020ff8 g     F .text	00000004 __sfp_lock_acquire
00028a14 g     F .text	000000cc memchr
00021f28 g     F .text	00002020 ___vfprintf_internal_r
0002a6e8 g     F .text	00000054 _sprintf_r
00027d0c g     F .text	000002fc _free_r
00039430 g     O .rodata	00000180 _ctype_b
00028574 g     F .text	0000000c __locale_mb_cur_max
0003909c g     F .text	00000120 __call_exitprocs
0003b6b4 g     O .rwdata	00000004 __malloc_sbrk_base
00020224 g     F .text	0000003c _start
0003d2f0 g     O .bss	00000004 _alt_tick_rate
0002c678 g     F .text	00000004 _strtoll_r
00029538 g     F .text	00000188 __lshift
0003d2f4 g     O .bss	00000008 _alt_nticks
00032d40 g     F .text	000000a0 signal
000373a8 g     F .text	00000108 read
00037788 g     F .text	00000064 alt_sys_init
000315d4 g     F .text	000001c8 __ssprint_r
0003900c g     F .text	00000090 __register_exitproc
000314c0 g     F .text	00000114 strncmp
0002912c g     F .text	000002c4 __multiply
00037cbc g     F .text	00000068 altera_avalon_jtag_uart_close
00033d78 g     F .text	00000028 .hidden __mulsi3
00039b08 g       *ABS*	00000000 __ram_rwdata_start
000391bc g       *ABS*	00000000 __ram_rodata_start
0003d300 g     O .bss	00000028 __malloc_current_mallinfo
00029a9c g     F .text	00000158 __d2b
000377ec g     F .text	00000060 altera_avalon_jtag_uart_read_fd
0002c924 g     F .text	00000004 _strtoul_r
00038824 g     F .text	000000b8 alt_get_fd
00025b80 g     F .text	00000058 _close_r
00038f94 g     F .text	00000078 memcmp
000378ac g     F .text	00000050 altera_avalon_jtag_uart_close_fd
0003d428 g       *ABS*	00000000 __alt_stack_base
000378fc g     F .text	00000054 altera_avalon_jtag_uart_ioctl_fd
00025a1c g     F .text	00000164 __swsetup_r
000347ac g     F .text	00000914 .hidden __divdf3
00020e98 g     F .text	0000013c __sfp
00029d08 g     F .text	0000007c __copybits
00039f2c g     O .rwdata	00000408 __malloc_av_
00021004 g     F .text	00000004 __sinit_lock_release
00035310 g     F .text	00000848 .hidden __muldf3
00021d50 g     F .text	00000054 __sread
00027bbc g     F .text	00000034 fread
0003871c g     F .text	00000108 alt_find_file
0003851c g     F .text	000000a8 alt_dev_llist_insert
000370ac g     F .text	00000024 __malloc_lock
00037520 g     F .text	000000b8 sbrk
0002ccb8 g     F .text	00001fa8 ___svfprintf_internal_r
00027884 g     F .text	00000060 _fflush_r
000303bc g     F .text	00000158 _calloc_r
0002067c g     F .text	00000050 flashsys_init_v1
0002cc9c g     F .text	0000001c strtoull
0003d2c8 g       *ABS*	00000000 __bss_start
00021a54 g     F .text	000000f4 memset
00020438 g     F .text	00000244 main
0003d2e8 g     O .bss	00000004 alt_envp
0003d2cc g     O .bss	00000004 __malloc_max_total_mem
0003784c g     F .text	00000060 altera_avalon_jtag_uart_write_fd
000328ec g     F .text	00000018 __swbuf
00033da0 g     F .text	000000b4 .hidden __ltsf2
00027968 g     F .text	00000254 _fread_r
000206cc g     F .text	00000138 sw_get_command_v1
00021e88 g     F .text	00000008 __sclose
00040000 g       *ABS*	00000000 __alt_heap_limit
0002764c g     F .text	00000010 fclose
0002c374 g     F .text	00000004 _strtol_r
00036648 g     F .text	00000178 .hidden __truncdfsf2
00025df8 g     F .text	0000175c _dtoa_r
00021170 g     F .text	000007e4 _malloc_r
00030314 g     F .text	00000030 __ascii_wctomb
0003b6d4 g     O .rwdata	00000004 alt_errno
00030520 g     F .text	00000020 _fiprintf_r
0002ec60 g     F .text	000000c8 __submore
00032de0 g     F .text	00000060 _init_signal
00021030 g     F .text	00000098 _fwalk
000289c4 g     F .text	0000000c _mbtowc_r
00020a84 g     F .text	00000080 .hidden __divsi3
00027bf0 g     F .text	0000011c _malloc_trim_r
000391bc g       *ABS*	00000000 __CTOR_END__
0002a7a0 g     F .text	000000b8 strcmp
000391bc g       *ABS*	00000000 __flash_rodata_start
000391bc g       *ABS*	00000000 __DTOR_LIST__
0002c928 g     F .text	0000001c strtoul_l
0003314c g     F .text	00000090 .hidden __fixunsdfdi
000350c0 g     F .text	00000080 .hidden __nedf2
0003774c g     F .text	0000003c alt_irq_init
000374b0 g     F .text	00000070 alt_release_fd
0002a73c g     F .text	00000064 sprintf
000399dc g     O .rodata	00000100 .hidden __clz_tab
0003d2dc g     O .bss	00000004 _PathLocale
000330d8 g     F .text	00000074 .hidden __fixdfdi
0002bfec g     F .text	00000124 strtof
0002be90 g     F .text	0000001c strtod_l
00038f4c g     F .text	00000014 atexit
000259b8 g     F .text	00000064 _write_r
000284dc g     F .text	00000024 iswspace_l
00028580 g     F .text	00000074 setlocale
000208f4 g     F .text	000000f8 sseg_disp_msg_v1
00021ce4 g     F .text	0000003c scanf
0003b6b0 g     O .rwdata	00000004 _impure_ptr
0003d2e0 g     O .bss	00000004 alt_argc
0002765c g     F .text	00000228 __sflush_r
000288b8 g     F .text	0000007c _mbrtowc_r
00038628 g     F .text	00000064 _do_dtors
00020260 g     F .text	00000050 sseg_conv_hex
0002a3d4 g     F .text	000001cc __srefill_r
00020020 g       .exceptions	00000000 alt_irq_entry
000289d0 g     F .text	00000044 __ascii_mbtowc
00029944 g     F .text	00000060 __ulp
0002101c g     F .text	00000014 __fp_unlock_all
000399b0 g     O .rodata	0000000c _C_numeric_locale
0003b6c0 g     O .rwdata	00000008 alt_fs_list
00020020 g       *ABS*	00000000 __ram_exceptions_start
00028608 g     F .text	0000000c localeconv
00028828 g     F .text	00000090 __swhatbuf_r
000202b0 g     F .text	0000007c sseg_disp_ptn
000388fc g     F .text	00000050 alt_ic_isr_register
0003b6e8 g       *ABS*	00000000 _edata
0003d428 g       *ABS*	00000000 _end
00033e54 g     F .text	0000004c .hidden __unordsf2
00030578 g     F .text	00000164 __fputwc
00020224 g       *ABS*	00000000 __ram_exceptions_end
000258e4 g     F .text	00000068 vfscanf
00037d24 g     F .text	000000f4 altera_avalon_jtag_uart_ioctl
000203c0 g     F .text	00000078 timer_wr_prd
000389d4 g     F .text	0000008c alt_ic_irq_disable
00021dac g     F .text	00000080 __swrite
0003b6b8 g     O .rwdata	00000004 __malloc_trim_threshold
00038f60 g     F .text	00000034 exit
00030540 g     F .text	00000038 fiprintf
000327a0 g     F .text	00000004 _vfiprintf_r
000210c8 g     F .text	000000a8 _fwalk_reent
00029718 g     F .text	0000022c __mdiff
00020b04 g     F .text	00000074 .hidden __modsi3
00040000 g       *ABS*	00000000 __alt_data_end
00020020 g     F .exceptions	00000000 alt_exception
00020ffc g     F .text	00000004 __sfp_lock_release
0002a5a0 g     F .text	00000148 __sccl
0003932c g     O .rodata	00000101 _ctype_
0003642c g     F .text	00000054 .hidden __unorddf2
00020c38 g     F .text	00000064 fileno
00036954 g     F .text	00000038 _exit
00038360 g     F .text	00000160 alt_alarm_start
00032f60 g     F .text	00000104 .hidden __muldi3
00028678 g     F .text	000001b0 __smakebuf_r
00021e90 g     F .text	00000098 strlen
00032a10 g     F .text	0000005c _init_signal_r
0003720c g     F .text	00000160 open
00035140 g     F .text	000000e8 .hidden __gedf2
000308b4 g     F .text	000008cc __gethex
000303a8 g     F .text	00000014 __assert
0002efb8 g     F .text	00000018 __sprint_r
000388dc g     F .text	00000020 alt_icache_flush_all
000314b8 g     F .text	00000008 __numeric_load_locale
0003b6dc g     O .rwdata	00000004 alt_priority_mask
0003894c g     F .text	00000088 alt_ic_irq_enable
00023f48 g     F .text	0000001c __vfprintf_internal
00030308 g     F .text	0000000c _wctomb_r
00035b58 g     F .text	000008d4 .hidden __subdf3
000369c8 g     F .text	00000130 fcntl
00028fcc g     F .text	000000b0 __lo0bits
00024024 g     F .text	000018c0 __svfscanf_r
0003b6e0 g     O .rwdata	00000008 alt_alarm_list
0002ed28 g     F .text	00000184 _ungetc_r
000385c4 g     F .text	00000064 _do_ctors
00032e40 g     F .text	000000bc __sigtramp
00032970 g     F .text	00000088 wcrtomb
0003684c g     F .text	000000dc close
0003a334 g     O .rwdata	0000016c __global_locale
00036e90 g     F .text	00000084 alt_load
00030700 g     F .text	00000078 fputwc
00032c84 g     F .text	000000bc raise
00021000 g     F .text	00000004 __sinit_lock_acquire
00028cd4 g     F .text	0000015c __multadd
00028cb0 g     F .text	00000024 _Bfree



Disassembly of section .entry:

00020000 <__reset>:
 * Jump to the _start entry point in the .text section if reset code
 * is allowed or if optimizing for RTL simulation.
 */
#if defined(ALT_ALLOW_CODE_AT_RESET) || defined(ALT_SIM_OPTIMIZE)
    /* Jump to the _start entry point in the .text section. */
    movhi r1, %hi(_start)
   20000:	004000b4 	movhi	at,2
    ori r1, r1, %lo(_start)
   20004:	08408914 	ori	at,at,548
    jmp r1
   20008:	0800683a 	jmp	at
	...

Disassembly of section .exceptions:

00020020 <alt_exception>:

#else /* ALT_EXCEPTION_STACK disabled */
        /* 
         * Reserve space on normal stack for registers about to be pushed.
         */
        addi  sp, sp, -76
   20020:	deffed04 	addi	sp,sp,-76
         * documentation for details).
         *
         * Leave a gap in the stack frame at 4(sp) for the muldiv handler to
         * store zero into.
         */
        stw   ra,  0(sp)
   20024:	dfc00015 	stw	ra,0(sp)
        stw   r1,   8(sp)
   20028:	d8400215 	stw	at,8(sp)
        stw   r2,  12(sp)
   2002c:	d8800315 	stw	r2,12(sp)
        stw   r3,  16(sp)
   20030:	d8c00415 	stw	r3,16(sp)
        stw   r4,  20(sp)
   20034:	d9000515 	stw	r4,20(sp)
        stw   r5,  24(sp)
   20038:	d9400615 	stw	r5,24(sp)
        stw   r6,  28(sp)
   2003c:	d9800715 	stw	r6,28(sp)
        stw   r7,  32(sp)
   20040:	d9c00815 	stw	r7,32(sp)
        rdctl r5, estatus   /* Read early to avoid usage stall */
   20044:	000b307a 	rdctl	r5,estatus
        stw   r8,  36(sp)
   20048:	da000915 	stw	r8,36(sp)
        stw   r9,  40(sp)
   2004c:	da400a15 	stw	r9,40(sp)
        stw   r10, 44(sp)
   20050:	da800b15 	stw	r10,44(sp)
        stw   r11, 48(sp)
   20054:	dac00c15 	stw	r11,48(sp)
        stw   r12, 52(sp)
   20058:	db000d15 	stw	r12,52(sp)
        stw   r13, 56(sp)
   2005c:	db400e15 	stw	r13,56(sp)
        stw   r14, 60(sp)
   20060:	db800f15 	stw	r14,60(sp)
        stw   r15, 64(sp)
   20064:	dbc01015 	stw	r15,64(sp)
        /*
         * ea-4 contains the address of the instruction being executed
         * when the exception occured. For interrupt exceptions, we will
         * will be re-issue the isntruction. Store it in 72(sp)
         */
        stw   r5,  68(sp)  /* estatus */
   20068:	d9401115 	stw	r5,68(sp)
        addi  r15, ea, -4  /* instruction that caused exception */
   2006c:	ebffff04 	addi	r15,ea,-4
        stw   r15,  72(sp)
   20070:	dbc01215 	stw	r15,72(sp)
#else
        /*
         * Test to see if the exception was a software exception or caused 
         * by an external interrupt, and vector accordingly.
         */
        rdctl r4, ipending
   20074:	0009313a 	rdctl	r4,ipending
        andi  r2, r5, 1
   20078:	2880004c 	andi	r2,r5,1
        beq   r2, zero, .Lnot_irq
   2007c:	10000326 	beq	r2,zero,2008c <alt_exception+0x6c>
        beq   r4, zero, .Lnot_irq
   20080:	20000226 	beq	r4,zero,2008c <alt_exception+0x6c>
        /*
         * Now that all necessary registers have been preserved, call 
         * alt_irq_handler() to process the interrupts.
         */

        call alt_irq_handler
   20084:	00200fc0 	call	200fc <alt_irq_handler>

        .section .exceptions.irqreturn, "xa"

        br    .Lexception_exit
   20088:	00000706 	br	200a8 <alt_exception+0x88>
         * upon completion, so we write ea (address of instruction *after*
         * the one where the exception occured) into 72(sp). The actual
         * instruction that caused the exception is written in r2, which these
         * handlers will utilize.
         */
        stw ea, 72(sp) /* EA is PC+4 so will skip over instruction causing exception */
   2008c:	df401215 	stw	ea,72(sp)
.Lunknown_16bit:
        addi.n r4, r4, 2 /* Need PC+2 to skip over instruction causing exception */
        stw r4, 72(sp)

#else /* CDX is not Enabled and all instructions are 32bits */
        ldw r2, -4(ea) /* Instruction value that caused exception */
   20090:	e8bfff17 	ldw	r2,-4(ea)
   20094:	e93fff04 	addi	r4,ea,-4
   20098:	00201c40 	call	201c4 <alt_instruction_exception_entry>
   2009c:	1000021e 	bne	r2,zero,200a8 <alt_exception+0x88>
   200a0:	ebffff04 	addi	r15,ea,-4
   200a4:	dbc01215 	stw	r15,72(sp)
        /* 
         * Restore the saved registers, so that all general purpose registers 
         * have been restored to their state at the time the interrupt occured.
         */

        ldw   r5,  68(sp)
   200a8:	d9401117 	ldw	r5,68(sp)
        ldw   ea,  72(sp)  /* This becomes the PC once eret is executed */
   200ac:	df401217 	ldw	ea,72(sp)
        ldw   ra,   0(sp)
   200b0:	dfc00017 	ldw	ra,0(sp)

        wrctl estatus, r5
   200b4:	2801707a 	wrctl	estatus,r5

        ldw   r1,   8(sp)
   200b8:	d8400217 	ldw	at,8(sp)
        ldw   r2,  12(sp)
   200bc:	d8800317 	ldw	r2,12(sp)
        ldw   r3,  16(sp)
   200c0:	d8c00417 	ldw	r3,16(sp)
        ldw   r4,  20(sp)
   200c4:	d9000517 	ldw	r4,20(sp)
        ldw   r5,  24(sp)
   200c8:	d9400617 	ldw	r5,24(sp)
        ldw   r6,  28(sp)
   200cc:	d9800717 	ldw	r6,28(sp)
        ldw   r7,  32(sp)
   200d0:	d9c00817 	ldw	r7,32(sp)

#if defined(ALT_EXCEPTION_STACK) && defined(ALT_STACK_CHECK)
        ldw   et, %gprel(alt_exception_old_stack_limit)(gp)
#endif

        ldw   r8,  36(sp)
   200d4:	da000917 	ldw	r8,36(sp)
        ldw   r9,  40(sp)
   200d8:	da400a17 	ldw	r9,40(sp)
        ldw   r10, 44(sp)
   200dc:	da800b17 	ldw	r10,44(sp)
        ldw   r11, 48(sp)
   200e0:	dac00c17 	ldw	r11,48(sp)
        ldw   r12, 52(sp)
   200e4:	db000d17 	ldw	r12,52(sp)
        ldw   r13, 56(sp)
   200e8:	db400e17 	ldw	r13,56(sp)
        ldw   r14, 60(sp)
   200ec:	db800f17 	ldw	r14,60(sp)
        ldw   r15, 64(sp)
   200f0:	dbc01017 	ldw	r15,64(sp)
        stw   et, %gprel(alt_stack_limit_value)(gp)
        stw   zero, %gprel(alt_exception_old_stack_limit)(gp)
#endif /* ALT_STACK_CHECK */
        ldw   sp,  76(sp)
#else /* ALT_EXCEPTION_STACK disabled */
        addi  sp, sp, 76
   200f4:	dec01304 	addi	sp,sp,76

        /*
         * Return to the interrupted instruction.
         */

        eret
   200f8:	ef80083a 	eret

000200fc <alt_irq_handler>:
 * instruction is present if the macro ALT_CI_INTERRUPT_VECTOR defined.
 */

void alt_irq_handler (void) __attribute__ ((section (".exceptions")));
void alt_irq_handler (void)
{
   200fc:	defff904 	addi	sp,sp,-28
   20100:	dfc00615 	stw	ra,24(sp)
   20104:	df000515 	stw	fp,20(sp)
   20108:	df000504 	addi	fp,sp,20
  
  /*
   * Notify the operating system that we are at interrupt level.
   */ 
  
  ALT_OS_INT_ENTER();
   2010c:	0001883a 	nop
#ifndef NIOS2_EIC_PRESENT
static ALT_INLINE alt_u32 ALT_ALWAYS_INLINE alt_irq_pending (void)
{
  alt_u32 active;

  NIOS2_READ_IPENDING (active);
   20110:	0005313a 	rdctl	r2,ipending
   20114:	e0bffc15 	stw	r2,-16(fp)

  return active;
   20118:	e0bffc17 	ldw	r2,-16(fp)
   * Consider the case where the high priority interupt is asserted during
   * the interrupt entry sequence for a lower priority interrupt to see why
   * this is the case.
   */

  active = alt_irq_pending ();
   2011c:	e0bfff15 	stw	r2,-4(fp)

  do
  {
    i = 0;
   20120:	e03ffd15 	stw	zero,-12(fp)
    mask = 1;
   20124:	00800044 	movi	r2,1
   20128:	e0bffe15 	stw	r2,-8(fp)
     * called to clear the interrupt condition.
     */

    do
    {
      if (active & mask)
   2012c:	e0ffff17 	ldw	r3,-4(fp)
   20130:	e0bffe17 	ldw	r2,-8(fp)
   20134:	1884703a 	and	r2,r3,r2
   20138:	10001126 	beq	r2,zero,20180 <alt_irq_handler+0x84>
      { 
#ifdef ALT_ENHANCED_INTERRUPT_API_PRESENT
        alt_irq[i].handler(alt_irq[i].context); 
   2013c:	e0bffd17 	ldw	r2,-12(fp)
   20140:	100690fa 	slli	r3,r2,3
   20144:	00800134 	movhi	r2,4
   20148:	1885883a 	add	r2,r3,r2
   2014c:	10f4ca17 	ldw	r3,-11480(r2)
   20150:	e0bffd17 	ldw	r2,-12(fp)
   20154:	100890fa 	slli	r4,r2,3
   20158:	00800134 	movhi	r2,4
   2015c:	2085883a 	add	r2,r4,r2
   20160:	10b4cb17 	ldw	r2,-11476(r2)
   20164:	1009883a 	mov	r4,r2
   20168:	183ee83a 	callr	r3
#else
        alt_irq[i].handler(alt_irq[i].context, i); 
#endif
        break;
   2016c:	0001883a 	nop
  NIOS2_READ_IPENDING (active);
   20170:	0005313a 	rdctl	r2,ipending
   20174:	e0bffb15 	stw	r2,-20(fp)
  return active;
   20178:	e0bffb17 	ldw	r2,-20(fp)
   2017c:	00000706 	br	2019c <alt_irq_handler+0xa0>
      }
      mask <<= 1;
   20180:	e0bffe17 	ldw	r2,-8(fp)
   20184:	1085883a 	add	r2,r2,r2
   20188:	e0bffe15 	stw	r2,-8(fp)
      i++;
   2018c:	e0bffd17 	ldw	r2,-12(fp)
   20190:	10800044 	addi	r2,r2,1
   20194:	e0bffd15 	stw	r2,-12(fp)
      if (active & mask)
   20198:	003fe406 	br	2012c <alt_irq_handler+0x30>

    } while (1);

    active = alt_irq_pending ();
   2019c:	e0bfff15 	stw	r2,-4(fp)
    
  } while (active);
   201a0:	e0bfff17 	ldw	r2,-4(fp)
   201a4:	103fde1e 	bne	r2,zero,20120 <alt_irq_handler+0x24>

  /*
   * Notify the operating system that interrupt processing is complete.
   */ 

  ALT_OS_INT_EXIT();
   201a8:	0001883a 	nop
}
   201ac:	0001883a 	nop
   201b0:	e037883a 	mov	sp,fp
   201b4:	dfc00117 	ldw	ra,4(sp)
   201b8:	df000017 	ldw	fp,0(sp)
   201bc:	dec00204 	addi	sp,sp,8
   201c0:	f800283a 	ret

000201c4 <alt_instruction_exception_entry>:
 * that handler if it has been registered. Absent a handler, it will
 * break break or hang as discussed below.
 */
int 
alt_instruction_exception_entry (alt_u32 exception_pc)
{
   201c4:	defffb04 	addi	sp,sp,-20
   201c8:	dfc00415 	stw	ra,16(sp)
   201cc:	df000315 	stw	fp,12(sp)
   201d0:	df000304 	addi	fp,sp,12
   201d4:	e13ffd15 	stw	r4,-12(fp)
  cause = ( (cause & NIOS2_EXCEPTION_REG_CAUSE_MASK) >>
              NIOS2_EXCEPTION_REG_CAUSE_OFST );

  NIOS2_READ_BADADDR(badaddr);
#else
  cause = NIOS2_EXCEPTION_CAUSE_NOT_PRESENT;
   201d8:	00bfffc4 	movi	r2,-1
   201dc:	e0bfff15 	stw	r2,-4(fp)
  badaddr = 0;
   201e0:	e03ffe15 	stw	zero,-8(fp)
#endif /* NIOS2_HAS_EXTRA_EXCEPTION_INFO */

  if(alt_instruction_exception_handler) {
   201e4:	d0a71517 	ldw	r2,-25516(gp)
   201e8:	10000726 	beq	r2,zero,20208 <alt_instruction_exception_entry+0x44>
     * Call handler. Its return value indicates whether the exception-causing
     * instruction should be re-issued. The code that called us,
     * alt_eceptions_entry.S, will look at this value and adjust the ea
     * register as necessary
     */
    return alt_instruction_exception_handler(cause, exception_pc, badaddr);
   201ec:	d0a71517 	ldw	r2,-25516(gp)
   201f0:	e0ffff17 	ldw	r3,-4(fp)
   201f4:	e1bffe17 	ldw	r6,-8(fp)
   201f8:	e17ffd17 	ldw	r5,-12(fp)
   201fc:	1809883a 	mov	r4,r3
   20200:	103ee83a 	callr	r2
   20204:	00000206 	br	20210 <alt_instruction_exception_entry+0x4c>
   *    (a peripheral which negates its interrupt output before its
   *    interrupt handler has been executed will cause spurious interrupts)
   */
  else {
#ifdef NIOS2_HAS_DEBUG_STUB
    NIOS2_BREAK();
   20208:	003da03a 	break	0
      ;
#endif /* NIOS2_HAS_DEBUG_STUB */
  }

  /* We should not get here. Remove compiler warning. */
  return NIOS2_EXCEPTION_RETURN_REISSUE_INST;
   2020c:	0005883a 	mov	r2,zero
}
   20210:	e037883a 	mov	sp,fp
   20214:	dfc00117 	ldw	ra,4(sp)
   20218:	df000017 	ldw	fp,0(sp)
   2021c:	dec00204 	addi	sp,sp,8
   20220:	f800283a 	ret

Disassembly of section .text:

00020224 <_start>:

    /*
     * Now that the caches are initialized, set up the stack pointer and global pointer.
     * The values provided by the linker are assumed to be correctly aligned.
     */
    movhi sp, %hi(__alt_stack_pointer)
   20224:	06c00134 	movhi	sp,4
    ori sp, sp, %lo(__alt_stack_pointer)
   20228:	dec00014 	ori	sp,sp,0
    movhi gp, %hi(_gp)
   2022c:	06800134 	movhi	gp,4
    ori gp, gp, %lo(_gp)
   20230:	d68daa14 	ori	gp,gp,13992
 */
#ifndef ALT_SIM_OPTIMIZE
    /* Log that the BSS is about to be cleared. */
    ALT_LOG_PUTS(alt_log_msg_bss)

    movhi r2, %hi(__bss_start)
   20234:	008000f4 	movhi	r2,3
    ori r2, r2, %lo(__bss_start)
   20238:	10b4b214 	ori	r2,r2,53960

    movhi r3, %hi(__bss_end)
   2023c:	00c000f4 	movhi	r3,3
    ori r3, r3, %lo(__bss_end)
   20240:	18f50a14 	ori	r3,r3,54312

    beq r2, r3, 1f
   20244:	10c00326 	beq	r2,r3,20254 <_start+0x30>

0:
    stw zero, (r2)
   20248:	10000015 	stw	zero,0(r2)
    addi r2, r2, 4
   2024c:	10800104 	addi	r2,r2,4
    bltu r2, r3, 0b
   20250:	10fffd36 	bltu	r2,r3,20248 <_start+0x24>
     * section aren't defined until alt_load() has been called).
     */
    mov   et, zero
#endif

    call alt_load
   20254:	0036e900 	call	36e90 <alt_load>

    /* Log that alt_main is about to be called. */
    ALT_LOG_PUTS(alt_log_msg_alt_main)

    /* Call the C entry point. It should never return. */
    call alt_main
   20258:	00370300 	call	37030 <alt_main>

0002025c <alt_after_alt_main>:

    /* Wait in infinite loop in case alt_main does return. */
alt_after_alt_main:
    br alt_after_alt_main
   2025c:	003fff06 	br	2025c <alt_after_alt_main>

00020260 <sseg_conv_hex>:
/**
 * Function: sseg_conv_hex
 * Purpose:convert a hex digit to a 7-segment pattern
 **/

alt_u8 sseg_conv_hex(int hex){
   20260:	defffd04 	addi	sp,sp,-12
   20264:	df000215 	stw	fp,8(sp)
   20268:	df000204 	addi	fp,sp,8
   2026c:	e13ffe15 	stw	r4,-8(fp)
	// active-low hex digit 7-seg patterns(0-9, a-f); MSB ignored
	static const alt_u8 SSEG_HEX_TABLE [16] = {
			0x40, 0x79, 0x24, 0x30, 0x19, 0x92, 0x02, 0x78, 0x00, 0x10, //0-9
			0x88, 0x03, 0x46, 0x21, 0x06, 0x0E};
	alt_u8 ptn;
	if(hex < 16){
   20270:	e0bffe17 	ldw	r2,-8(fp)
   20274:	10800408 	cmpgei	r2,r2,16
   20278:	1000061e 	bne	r2,zero,20294 <sseg_conv_hex+0x34>
		ptn = SSEG_HEX_TABLE[hex];
   2027c:	e0fffe17 	ldw	r3,-8(fp)
   20280:	00800134 	movhi	r2,4
   20284:	1885883a 	add	r2,r3,r2
   20288:	10a46f03 	ldbu	r2,-28228(r2)
   2028c:	e0bfffc5 	stb	r2,-1(fp)
   20290:	00000206 	br	2029c <sseg_conv_hex+0x3c>
	} else{
		ptn = 0xFF; //blank
   20294:	00bfffc4 	movi	r2,-1
   20298:	e0bfffc5 	stb	r2,-1(fp)
	}

	return ptn;
   2029c:	e0bfffc3 	ldbu	r2,-1(fp)
}
   202a0:	e037883a 	mov	sp,fp
   202a4:	df000017 	ldw	fp,0(sp)
   202a8:	dec00104 	addi	sp,sp,4
   202ac:	f800283a 	ret

000202b0 <sseg_disp_ptn>:
/**
 * Function: sseg_disp_ptn
 * Purpose: display pattern in four 7-seg displays
 **/

void sseg_disp_ptn(alt_u32 base, alt_u8 *ptn){
   202b0:	defffb04 	addi	sp,sp,-20
   202b4:	df000415 	stw	fp,16(sp)
   202b8:	df000404 	addi	fp,sp,16
   202bc:	e13ffd15 	stw	r4,-12(fp)
   202c0:	e17ffc15 	stw	r5,-16(fp)
	alt_u32 sseg_data;
	int i;
	// form a 32 bit data

	for (i=0; i<4; i++){
   202c4:	e03ffe15 	stw	zero,-8(fp)
   202c8:	00000d06 	br	20300 <sseg_disp_ptn+0x50>
		sseg_data = (sseg_data << 8 ) | *ptn;
   202cc:	e0bfff17 	ldw	r2,-4(fp)
   202d0:	1006923a 	slli	r3,r2,8
   202d4:	e0bffc17 	ldw	r2,-16(fp)
   202d8:	10800003 	ldbu	r2,0(r2)
   202dc:	10803fcc 	andi	r2,r2,255
   202e0:	1884b03a 	or	r2,r3,r2
   202e4:	e0bfff15 	stw	r2,-4(fp)
		ptn++;
   202e8:	e0bffc17 	ldw	r2,-16(fp)
   202ec:	10800044 	addi	r2,r2,1
   202f0:	e0bffc15 	stw	r2,-16(fp)
	for (i=0; i<4; i++){
   202f4:	e0bffe17 	ldw	r2,-8(fp)
   202f8:	10800044 	addi	r2,r2,1
   202fc:	e0bffe15 	stw	r2,-8(fp)
   20300:	e0bffe17 	ldw	r2,-8(fp)
   20304:	10800110 	cmplti	r2,r2,4
   20308:	103ff01e 	bne	r2,zero,202cc <sseg_disp_ptn+0x1c>
	}
	pio_write(base, sseg_data);
   2030c:	e0bffd17 	ldw	r2,-12(fp)
   20310:	e0ffff17 	ldw	r3,-4(fp)
   20314:	10c00035 	stwio	r3,0(r2)
}
   20318:	0001883a 	nop
   2031c:	e037883a 	mov	sp,fp
   20320:	df000017 	ldw	fp,0(sp)
   20324:	dec00104 	addi	sp,sp,4
   20328:	f800283a 	ret

0002032c <jtaguart_wr_str>:


void jtaguart_wr_str(alt_u32 jtag_base, char* msg){
   2032c:	defffc04 	addi	sp,sp,-16
   20330:	df000315 	stw	fp,12(sp)
   20334:	df000304 	addi	fp,sp,12
   20338:	e13ffe15 	stw	r4,-8(fp)
   2033c:	e17ffd15 	stw	r5,-12(fp)
	alt_u32 data32;
	while(*msg){
   20340:	00001306 	br	20390 <jtaguart_wr_str+0x64>
		data32 = (alt_u32) *msg;
   20344:	e0bffd17 	ldw	r2,-12(fp)
   20348:	10800003 	ldbu	r2,0(r2)
   2034c:	10803fcc 	andi	r2,r2,255
   20350:	1080201c 	xori	r2,r2,128
   20354:	10bfe004 	addi	r2,r2,-128
   20358:	e0bfff15 	stw	r2,-4(fp)
		if(jtaguart_rd_wspace(jtag_base) != 0){
   2035c:	e0bffe17 	ldw	r2,-8(fp)
   20360:	10800104 	addi	r2,r2,4
   20364:	10800037 	ldwio	r2,0(r2)
   20368:	1004d43a 	srli	r2,r2,16
   2036c:	10bfffcc 	andi	r2,r2,65535
   20370:	10000726 	beq	r2,zero,20390 <jtaguart_wr_str+0x64>
			jtaguart_wr_ch(jtag_base, data32);
   20374:	e0bffe17 	ldw	r2,-8(fp)
   20378:	e0ffff17 	ldw	r3,-4(fp)
   2037c:	18c03fcc 	andi	r3,r3,255
   20380:	10c00035 	stwio	r3,0(r2)
			msg++;
   20384:	e0bffd17 	ldw	r2,-12(fp)
   20388:	10800044 	addi	r2,r2,1
   2038c:	e0bffd15 	stw	r2,-12(fp)
	while(*msg){
   20390:	e0bffd17 	ldw	r2,-12(fp)
   20394:	10800003 	ldbu	r2,0(r2)
   20398:	10803fcc 	andi	r2,r2,255
   2039c:	1080201c 	xori	r2,r2,128
   203a0:	10bfe004 	addi	r2,r2,-128
   203a4:	103fe71e 	bne	r2,zero,20344 <jtaguart_wr_str+0x18>
		}
	}
}
   203a8:	0001883a 	nop
   203ac:	0001883a 	nop
   203b0:	e037883a 	mov	sp,fp
   203b4:	df000017 	ldw	fp,0(sp)
   203b8:	dec00104 	addi	sp,sp,4
   203bc:	f800283a 	ret

000203c0 <timer_wr_prd>:

void timer_wr_prd(alt_u32 timer_base, alt_u32 prd){
   203c0:	defffc04 	addi	sp,sp,-16
   203c4:	df000315 	stw	fp,12(sp)
   203c8:	df000304 	addi	fp,sp,12
   203cc:	e13ffe15 	stw	r4,-8(fp)
   203d0:	e17ffd15 	stw	r5,-12(fp)
	alt_u16 high, low;
	// unpack 32-bit timeout period into two 16-bit half words
	high = (alt_u16)(prd>>16);
   203d4:	e0bffd17 	ldw	r2,-12(fp)
   203d8:	1004d43a 	srli	r2,r2,16
   203dc:	e0bfff8d 	sth	r2,-2(fp)
	low = (alt_16)(prd & 0x0000ffff);
   203e0:	e0bffd17 	ldw	r2,-12(fp)
   203e4:	e0bfff0d 	sth	r2,-4(fp)
	//write timeout period
	IOWR(timer_base, TIMER_PRDH_REG_OFT, high);
   203e8:	e0bffe17 	ldw	r2,-8(fp)
   203ec:	10800304 	addi	r2,r2,12
   203f0:	1007883a 	mov	r3,r2
   203f4:	e0bfff8b 	ldhu	r2,-2(fp)
   203f8:	18800035 	stwio	r2,0(r3)
	IOWR(timer_base, TIMER_PRDL_REG_OFT, low);
   203fc:	e0bffe17 	ldw	r2,-8(fp)
   20400:	10800204 	addi	r2,r2,8
   20404:	1007883a 	mov	r3,r2
   20408:	e0bfff0b 	ldhu	r2,-4(fp)
   2040c:	18800035 	stwio	r2,0(r3)
	//configure timer to start continous mode, enabling interrupt
	IOWR(timer_base, TIMER_CTRL_REG_OFT, 0x0007);
   20410:	e0bffe17 	ldw	r2,-8(fp)
   20414:	10800104 	addi	r2,r2,4
   20418:	1007883a 	mov	r3,r2
   2041c:	008001c4 	movi	r2,7
   20420:	18800035 	stwio	r2,0(r3)
}
   20424:	0001883a 	nop
   20428:	e037883a 	mov	sp,fp
   2042c:	df000017 	ldw	fp,0(sp)
   20430:	dec00104 	addi	sp,sp,4
   20434:	f800283a 	ret

00020438 <main>:
  int pause;
  int prd;
}
cmd_type;

int main(void) {
   20438:	deffb404 	addi	sp,sp,-304
   2043c:	dfc04b15 	stw	ra,300(sp)
   20440:	df004a15 	stw	fp,296(sp)
   20444:	df004a04 	addi	fp,sp,296

  FILE * fd;
  fd = open("/dev/jtag_uart", O_NONBLOCK | O_RDONLY);
   20448:	01500004 	movi	r5,16384
   2044c:	01000134 	movhi	r4,4
   20450:	21247304 	addi	r4,r4,-28212
   20454:	003720c0 	call	3720c <open>
   20458:	e0bfff15 	stw	r2,-4(fp)
  int fp = fileno(fd);
   2045c:	e13fff17 	ldw	r4,-4(fp)
   20460:	0020c380 	call	20c38 <fileno>
   20464:	e0bffe15 	stw	r2,-8(fp)
  int flags = fcntl(fp, F_GETFL);
   20468:	014000c4 	movi	r5,3
   2046c:	e13ffe17 	ldw	r4,-8(fp)
   20470:	00369c80 	call	369c8 <fcntl>
   20474:	e0bffd15 	stw	r2,-12(fp)
  fcntl(fp, F_SETFL, flags | O_NONBLOCK);
   20478:	e0bffd17 	ldw	r2,-12(fp)
   2047c:	10900014 	ori	r2,r2,16384
   20480:	100d883a 	mov	r6,r2
   20484:	01400104 	movi	r5,4
   20488:	e13ffe17 	ldw	r4,-8(fp)
   2048c:	00369c80 	call	369c8 <fcntl>
  char prompt[BUF_SIZE] = "";
   20490:	e03fbd15 	stw	zero,-268(fp)
   20494:	e0bfbe04 	addi	r2,fp,-264
   20498:	00c03f04 	movi	r3,252
   2049c:	180d883a 	mov	r6,r3
   204a0:	000b883a 	mov	r5,zero
   204a4:	1009883a 	mov	r4,r2
   204a8:	0021a540 	call	21a54 <memset>
  printf("Ingrese 1 para operar con sw y botones, ingrese 2 para operar con teclado");
   204ac:	01000134 	movhi	r4,4
   204b0:	21247704 	addi	r4,r4,-28196
   204b4:	0021b780 	call	21b78 <printf>
  int a = 1;
   204b8:	00800044 	movi	r2,1
   204bc:	e0bfbc15 	stw	r2,-272(fp)
  scanf("%d", & a);
   204c0:	e0bfbc04 	addi	r2,fp,-272
   204c4:	100b883a 	mov	r5,r2
   204c8:	01000134 	movhi	r4,4
   204cc:	21248a04 	addi	r4,r4,-28120
   204d0:	0021ce40 	call	21ce4 <scanf>
  printf(a);
   204d4:	e0bfbc17 	ldw	r2,-272(fp)
   204d8:	1009883a 	mov	r4,r2
   204dc:	0021b780 	call	21b78 <printf>
  if (a == 1) {
   204e0:	e0bfbc17 	ldw	r2,-272(fp)
   204e4:	10800058 	cmpnei	r2,r2,1
   204e8:	1000271e 	bne	r2,zero,20588 <main+0x150>
    cmd_type sw_cmd = {
   204ec:	e03fba15 	stw	zero,-280(fp)
   204f0:	00801904 	movi	r2,100
   204f4:	e0bfbb15 	stw	r2,-276(fp)
      0,
      100
    }; //initial value: not pause, 100 ms interval
    flashsys_init_v1(BTN_BASE, USR_TIMER_BASE);
   204f8:	01400134 	movhi	r5,4
   204fc:	29441004 	addi	r5,r5,4160
   20500:	01000134 	movhi	r4,4
   20504:	21043004 	addi	r4,r4,4288
   20508:	002067c0 	call	2067c <flashsys_init_v1>
    while (1) {

      sw_get_command_v1(BTN_BASE, SWITCH_BASE, & sw_cmd, JTAG_UART_BASE, fd, prompt);
   2050c:	e0ffba04 	addi	r3,fp,-280
   20510:	e0bfbd04 	addi	r2,fp,-268
   20514:	d8800115 	stw	r2,4(sp)
   20518:	e0bfff17 	ldw	r2,-4(fp)
   2051c:	d8800015 	stw	r2,0(sp)
   20520:	01c00134 	movhi	r7,4
   20524:	39c44604 	addi	r7,r7,4376
   20528:	180d883a 	mov	r6,r3
   2052c:	01400134 	movhi	r5,4
   20530:	29443404 	addi	r5,r5,4304
   20534:	01000134 	movhi	r4,4
   20538:	21043004 	addi	r4,r4,4288
   2053c:	00206cc0 	call	206cc <sw_get_command_v1>
      jtaguart_disp_msg_v1(JTAG_UART_BASE, sw_cmd);
   20540:	e17fba17 	ldw	r5,-280(fp)
   20544:	e1bfbb17 	ldw	r6,-276(fp)
   20548:	01000134 	movhi	r4,4
   2054c:	21044604 	addi	r4,r4,4376
   20550:	00208040 	call	20804 <jtaguart_disp_msg_v1>
      sseg_disp_msg_v1(SSEG_BASE, sw_cmd);
   20554:	e17fba17 	ldw	r5,-280(fp)
   20558:	e1bfbb17 	ldw	r6,-276(fp)
   2055c:	01000134 	movhi	r4,4
   20560:	21043804 	addi	r4,r4,4320
   20564:	00208f40 	call	208f4 <sseg_disp_msg_v1>
      led_flash_v1(LEDR_BASE, USR_TIMER_BASE, sw_cmd);
   20568:	e1bfba17 	ldw	r6,-280(fp)
   2056c:	e1ffbb17 	ldw	r7,-276(fp)
   20570:	01400134 	movhi	r5,4
   20574:	29441004 	addi	r5,r5,4160
   20578:	01000134 	movhi	r4,4
   2057c:	21043c04 	addi	r4,r4,4336
   20580:	00209ec0 	call	209ec <led_flash_v1>
    while (1) {
   20584:	003fe106 	br	2050c <main+0xd4>
    }
  }
  if (a == 2) {
   20588:	e0bfbc17 	ldw	r2,-272(fp)
   2058c:	10800098 	cmpnei	r2,r2,2
   20590:	1000341e 	bne	r2,zero,20664 <main+0x22c>
    cmd_type sw_cmd = {
   20594:	e03fb815 	stw	zero,-288(fp)
   20598:	e03fb915 	stw	zero,-284(fp)
      0,
      0
    };
    flashsys_init_v1(BTN_BASE, USR_TIMER_BASE);
   2059c:	01400134 	movhi	r5,4
   205a0:	29441004 	addi	r5,r5,4160
   205a4:	01000134 	movhi	r4,4
   205a8:	21043004 	addi	r4,r4,4288
   205ac:	002067c0 	call	2067c <flashsys_init_v1>

    while (1) {
      sseg_disp_msg_v1(SSEG_BASE, sw_cmd);
   205b0:	e17fb817 	ldw	r5,-288(fp)
   205b4:	e1bfb917 	ldw	r6,-284(fp)
   205b8:	01000134 	movhi	r4,4
   205bc:	21043804 	addi	r4,r4,4320
   205c0:	00208f40 	call	208f4 <sseg_disp_msg_v1>
      led_flash_v1(LEDR_BASE, USR_TIMER_BASE, sw_cmd);
   205c4:	e1bfb817 	ldw	r6,-288(fp)
   205c8:	e1ffb917 	ldw	r7,-284(fp)
   205cc:	01400134 	movhi	r5,4
   205d0:	29441004 	addi	r5,r5,4160
   205d4:	01000134 	movhi	r4,4
   205d8:	21043c04 	addi	r4,r4,4336
   205dc:	00209ec0 	call	209ec <led_flash_v1>
      read(fd, & prompt, BUF_SIZE);
   205e0:	e0bfff17 	ldw	r2,-4(fp)
   205e4:	e0ffbd04 	addi	r3,fp,-268
   205e8:	01804004 	movi	r6,256
   205ec:	180b883a 	mov	r5,r3
   205f0:	1009883a 	mov	r4,r2
   205f4:	00373a80 	call	373a8 <read>

      if (prompt[0] == 's') {
   205f8:	e0bfbd03 	ldbu	r2,-268(fp)
   205fc:	10803fcc 	andi	r2,r2,255
   20600:	1080201c 	xori	r2,r2,128
   20604:	10bfe004 	addi	r2,r2,-128
   20608:	10801cd8 	cmpnei	r2,r2,115
   2060c:	1000031e 	bne	r2,zero,2061c <main+0x1e4>
        sw_cmd.pause = 0; //Start the execution
   20610:	e03fb815 	stw	zero,-288(fp)
        sw_cmd.prd = 100;
   20614:	00801904 	movi	r2,100
   20618:	e0bfb915 	stw	r2,-284(fp)
      }
      if (prompt[0] == 'p') {
   2061c:	e0bfbd03 	ldbu	r2,-268(fp)
   20620:	10803fcc 	andi	r2,r2,255
   20624:	1080201c 	xori	r2,r2,128
   20628:	10bfe004 	addi	r2,r2,-128
   2062c:	10801c18 	cmpnei	r2,r2,112
   20630:	1000021e 	bne	r2,zero,2063c <main+0x204>
        sw_cmd.pause = 1; //Stop execution
   20634:	00800044 	movi	r2,1
   20638:	e0bfb815 	stw	r2,-288(fp)
      }

      if (prompt[0] == 'c') {
   2063c:	e0bfbd03 	ldbu	r2,-268(fp)
   20640:	10803fcc 	andi	r2,r2,255
   20644:	1080201c 	xori	r2,r2,128
   20648:	10bfe004 	addi	r2,r2,-128
   2064c:	108018d8 	cmpnei	r2,r2,99
   20650:	103fd71e 	bne	r2,zero,205b0 <main+0x178>
        sw_cmd.pause = 1;
   20654:	00800044 	movi	r2,1
   20658:	e0bfb815 	stw	r2,-288(fp)
        sw_cmd.prd = 0;
   2065c:	e03fb915 	stw	zero,-284(fp)
    while (1) {
   20660:	003fd306 	br	205b0 <main+0x178>
      }
    }
  }

  return 0;
   20664:	0005883a 	mov	r2,zero
}
   20668:	e037883a 	mov	sp,fp
   2066c:	dfc00117 	ldw	ra,4(sp)
   20670:	df000017 	ldw	fp,0(sp)
   20674:	dec00204 	addi	sp,sp,8
   20678:	f800283a 	ret

0002067c <flashsys_init_v1>:

void flashsys_init_v1(alt_u32 btn_base, alt_u32 timer_base) {
   2067c:	defffc04 	addi	sp,sp,-16
   20680:	dfc00315 	stw	ra,12(sp)
   20684:	df000215 	stw	fp,8(sp)
   20688:	df000204 	addi	fp,sp,8
   2068c:	e13fff15 	stw	r4,-4(fp)
   20690:	e17ffe15 	stw	r5,-8(fp)
  btn_clear(btn_base); // clear button edge-capture reg
   20694:	e0bfff17 	ldw	r2,-4(fp)
   20698:	10800304 	addi	r2,r2,12
   2069c:	1007883a 	mov	r3,r2
   206a0:	008003c4 	movi	r2,15
   206a4:	18800035 	stwio	r2,0(r3)
  timer_wr_prd(timer_base, 50000); // set 1-ms timeout period
   206a8:	0170d414 	movui	r5,50000
   206ac:	e13ffe17 	ldw	r4,-8(fp)
   206b0:	00203c00 	call	203c0 <timer_wr_prd>
}
   206b4:	0001883a 	nop
   206b8:	e037883a 	mov	sp,fp
   206bc:	dfc00117 	ldw	ra,4(sp)
   206c0:	df000017 	ldw	fp,0(sp)
   206c4:	dec00204 	addi	sp,sp,8
   206c8:	f800283a 	ret

000206cc <sw_get_command_v1>:

void sw_get_command_v1(alt_u32 btn_base, alt_32 sw_base, cmd_type * cmd, alt_u32 jtag_base, FILE * fd, char prompt[BUF_SIZE]) {
   206cc:	defff804 	addi	sp,sp,-32
   206d0:	dfc00715 	stw	ra,28(sp)
   206d4:	df000615 	stw	fp,24(sp)
   206d8:	df000604 	addi	fp,sp,24
   206dc:	e13ffd15 	stw	r4,-12(fp)
   206e0:	e17ffc15 	stw	r5,-16(fp)
   206e4:	e1bffb15 	stw	r6,-20(fp)
   206e8:	e1fffa15 	stw	r7,-24(fp)
  alt_u8 btn;
  btn = (alt_u8) btn_read(btn_base) & 0xF; //read 4 pushbuttons
   206ec:	e0bffd17 	ldw	r2,-12(fp)
   206f0:	10800304 	addi	r2,r2,12
   206f4:	10800037 	ldwio	r2,0(r2)
   206f8:	108003cc 	andi	r2,r2,15
   206fc:	e0bfffc5 	stb	r2,-1(fp)
  if (btn != 0) { // button pressed
   20700:	e0bfffc3 	ldbu	r2,-1(fp)
   20704:	10003926 	beq	r2,zero,207ec <sw_get_command_v1+0x120>
    if (btn & 0x01) { // btn 0 pressed
   20708:	e0bfffc3 	ldbu	r2,-1(fp)
   2070c:	1080004c 	andi	r2,r2,1
   20710:	10000a26 	beq	r2,zero,2073c <sw_get_command_v1+0x70>
      cmd -> pause = cmd -> pause ^ 1; // toogle pause bit
   20714:	e0bffb17 	ldw	r2,-20(fp)
   20718:	10800017 	ldw	r2,0(r2)
   2071c:	10c0005c 	xori	r3,r2,1
   20720:	e0bffb17 	ldw	r2,-20(fp)
   20724:	10c00015 	stw	r3,0(r2)
      btn_clear(btn_base); //clear edge-capture reg
   20728:	e0bffd17 	ldw	r2,-12(fp)
   2072c:	10800304 	addi	r2,r2,12
   20730:	1007883a 	mov	r3,r2
   20734:	008003c4 	movi	r2,15
   20738:	18800035 	stwio	r2,0(r3)

    }
    if (btn & 0x02) { //btn 1 pressed
   2073c:	e0bfffc3 	ldbu	r2,-1(fp)
   20740:	1080008c 	andi	r2,r2,2
   20744:	10000a26 	beq	r2,zero,20770 <sw_get_command_v1+0xa4>
      cmd -> prd = pio_read(sw_base) & 0x03FF; // load new interval
   20748:	e0bffc17 	ldw	r2,-16(fp)
   2074c:	10800037 	ldwio	r2,0(r2)
   20750:	10c0ffcc 	andi	r3,r2,1023
   20754:	e0bffb17 	ldw	r2,-20(fp)
   20758:	10c00115 	stw	r3,4(r2)
      btn_clear(btn_base); //clear edge-capture reg
   2075c:	e0bffd17 	ldw	r2,-12(fp)
   20760:	10800304 	addi	r2,r2,12
   20764:	1007883a 	mov	r3,r2
   20768:	008003c4 	movi	r2,15
   2076c:	18800035 	stwio	r2,0(r3)
      //printf("%s", "1 p	while(1){reessed\n");
    }
    if (btn & 0x04) { //btn 1 pressed
   20770:	e0bfffc3 	ldbu	r2,-1(fp)
   20774:	1080010c 	andi	r2,r2,4
   20778:	10001c26 	beq	r2,zero,207ec <sw_get_command_v1+0x120>
      int new_prd;
      printf("%s", "Type new interval");
   2077c:	01400134 	movhi	r5,4
   20780:	29648b04 	addi	r5,r5,-28116
   20784:	01000134 	movhi	r4,4
   20788:	21249004 	addi	r4,r4,-28096
   2078c:	0021b780 	call	21b78 <printf>
      scanf("%d", & new_prd);
   20790:	e0bffe04 	addi	r2,fp,-8
   20794:	100b883a 	mov	r5,r2
   20798:	01000134 	movhi	r4,4
   2079c:	21248a04 	addi	r4,r4,-28120
   207a0:	0021ce40 	call	21ce4 <scanf>
      if (new_prd > 999) {
   207a4:	e0bffe17 	ldw	r2,-8(fp)
   207a8:	1080fa10 	cmplti	r2,r2,1000
   207ac:	1000071e 	bne	r2,zero,207cc <sw_get_command_v1+0x100>
        cmd -> prd = 999;
   207b0:	e0bffb17 	ldw	r2,-20(fp)
   207b4:	00c0f9c4 	movi	r3,999
   207b8:	10c00115 	stw	r3,4(r2)
        printf("solo se pueden valores menores de 999, se toma 999 como intervalo\n");
   207bc:	01000134 	movhi	r4,4
   207c0:	21249104 	addi	r4,r4,-28092
   207c4:	0021c7c0 	call	21c7c <puts>
   207c8:	00000306 	br	207d8 <sw_get_command_v1+0x10c>

      } else {
        cmd -> prd = new_prd;
   207cc:	e0fffe17 	ldw	r3,-8(fp)
   207d0:	e0bffb17 	ldw	r2,-20(fp)
   207d4:	10c00115 	stw	r3,4(r2)
      }
      btn_clear(btn_base); //clear edge-capture reg
   207d8:	e0bffd17 	ldw	r2,-12(fp)
   207dc:	10800304 	addi	r2,r2,12
   207e0:	1007883a 	mov	r3,r2
   207e4:	008003c4 	movi	r2,15
   207e8:	18800035 	stwio	r2,0(r3)
    }

  }
}
   207ec:	0001883a 	nop
   207f0:	e037883a 	mov	sp,fp
   207f4:	dfc00117 	ldw	ra,4(sp)
   207f8:	df000017 	ldw	fp,0(sp)
   207fc:	dec00204 	addi	sp,sp,8
   20800:	f800283a 	ret

00020804 <jtaguart_disp_msg_v1>:

void jtaguart_disp_msg_v1(alt_u32 jtag_base, cmd_type cmd) {
   20804:	defff604 	addi	sp,sp,-40
   20808:	dfc00915 	stw	ra,36(sp)
   2080c:	df000815 	stw	fp,32(sp)
   20810:	df000804 	addi	fp,sp,32
   20814:	e13ffa15 	stw	r4,-24(fp)
   20818:	e17ff815 	stw	r5,-32(fp)
   2081c:	e1bff915 	stw	r6,-28(fp)
  static int current = 0; //current interval
  char msg[] = "Interval: 0000 ms\n";
   20820:	e0fffb44 	addi	r3,fp,-19
   20824:	00800134 	movhi	r2,4
   20828:	10a4a204 	addi	r2,r2,-28024
   2082c:	010004c4 	movi	r4,19
   20830:	200d883a 	mov	r6,r4
   20834:	100b883a 	mov	r5,r2
   20838:	1809883a 	mov	r4,r3
   2083c:	00219540 	call	21954 <memcpy>

  if (cmd.prd != current) { //new interval detected
   20840:	e0fff917 	ldw	r3,-28(fp)
   20844:	d0a70817 	ldw	r2,-25568(gp)
   20848:	18802426 	beq	r3,r2,208dc <jtaguart_disp_msg_v1+0xd8>
    msg[13] = cmd.prd % 10 + '0'; //ascii code for 0 digit
   2084c:	e0bff917 	ldw	r2,-28(fp)
   20850:	01400284 	movi	r5,10
   20854:	1009883a 	mov	r4,r2
   20858:	0020b040 	call	20b04 <__modsi3>
   2085c:	10800c04 	addi	r2,r2,48
   20860:	e0bffe85 	stb	r2,-6(fp)
    msg[12] = (cmd.prd / 10) % 10 + '0'; //ascii code for 10 digit
   20864:	e0bff917 	ldw	r2,-28(fp)
   20868:	01400284 	movi	r5,10
   2086c:	1009883a 	mov	r4,r2
   20870:	0020a840 	call	20a84 <__divsi3>
   20874:	01400284 	movi	r5,10
   20878:	1009883a 	mov	r4,r2
   2087c:	0020b040 	call	20b04 <__modsi3>
   20880:	10800c04 	addi	r2,r2,48
   20884:	e0bffe45 	stb	r2,-7(fp)
    msg[11] = (cmd.prd / 100) % 10 + '0'; //ascii code for 100 digit
   20888:	e0bff917 	ldw	r2,-28(fp)
   2088c:	01401904 	movi	r5,100
   20890:	1009883a 	mov	r4,r2
   20894:	0020a840 	call	20a84 <__divsi3>
   20898:	01400284 	movi	r5,10
   2089c:	1009883a 	mov	r4,r2
   208a0:	0020b040 	call	20b04 <__modsi3>
   208a4:	10800c04 	addi	r2,r2,48
   208a8:	e0bffe05 	stb	r2,-8(fp)
    msg[10] = cmd.prd / 1000 + '0'; //ascii code for 1000 digit
   208ac:	e0bff917 	ldw	r2,-28(fp)
   208b0:	0140fa04 	movi	r5,1000
   208b4:	1009883a 	mov	r4,r2
   208b8:	0020a840 	call	20a84 <__divsi3>
   208bc:	10800c04 	addi	r2,r2,48
   208c0:	e0bffdc5 	stb	r2,-9(fp)
    jtaguart_wr_str(jtag_base, msg); //send string to console
   208c4:	e0bffb44 	addi	r2,fp,-19
   208c8:	100b883a 	mov	r5,r2
   208cc:	e13ffa17 	ldw	r4,-24(fp)
   208d0:	002032c0 	call	2032c <jtaguart_wr_str>
    current = cmd.prd; //update current interval
   208d4:	e0bff917 	ldw	r2,-28(fp)
   208d8:	d0a70815 	stw	r2,-25568(gp)

  }
}
   208dc:	0001883a 	nop
   208e0:	e037883a 	mov	sp,fp
   208e4:	dfc00117 	ldw	ra,4(sp)
   208e8:	df000017 	ldw	fp,0(sp)
   208ec:	dec00204 	addi	sp,sp,8
   208f0:	f800283a 	ret

000208f4 <sseg_disp_msg_v1>:

void sseg_disp_msg_v1(alt_u32 sseg_base, cmd_type cmd) {
   208f4:	defff804 	addi	sp,sp,-32
   208f8:	dfc00715 	stw	ra,28(sp)
   208fc:	df000615 	stw	fp,24(sp)
   20900:	df000604 	addi	fp,sp,24
   20904:	e13ffc15 	stw	r4,-16(fp)
   20908:	e17ffa15 	stw	r5,-24(fp)
   2090c:	e1bffb15 	stw	r6,-20(fp)
  int pd;
  alt_u8 hex, msg[4];
  if (cmd.prd > 999) { //999 is max # to be displayed
   20910:	e0bffb17 	ldw	r2,-20(fp)
   20914:	1080fa10 	cmplti	r2,r2,1000
   20918:	1000031e 	bne	r2,zero,20928 <sseg_disp_msg_v1+0x34>
    pd = 999;
   2091c:	0080f9c4 	movi	r2,999
   20920:	e0bfff15 	stw	r2,-4(fp)
   20924:	00000206 	br	20930 <sseg_disp_msg_v1+0x3c>
  } else {
    pd = cmd.prd;
   20928:	e0bffb17 	ldw	r2,-20(fp)
   2092c:	e0bfff15 	stw	r2,-4(fp)
  }
  hex = pd % 10; // units digit
   20930:	e0bfff17 	ldw	r2,-4(fp)
   20934:	01400284 	movi	r5,10
   20938:	1009883a 	mov	r4,r2
   2093c:	0020b040 	call	20b04 <__modsi3>
   20940:	e0bffec5 	stb	r2,-5(fp)
  msg[3] = sseg_conv_hex(hex);
   20944:	e0bffec3 	ldbu	r2,-5(fp)
   20948:	1009883a 	mov	r4,r2
   2094c:	00202600 	call	20260 <sseg_conv_hex>
   20950:	e0bffe85 	stb	r2,-6(fp)
  hex = (pd / 10) % 10; //tens digit
   20954:	e0bfff17 	ldw	r2,-4(fp)
   20958:	01400284 	movi	r5,10
   2095c:	1009883a 	mov	r4,r2
   20960:	0020a840 	call	20a84 <__divsi3>
   20964:	01400284 	movi	r5,10
   20968:	1009883a 	mov	r4,r2
   2096c:	0020b040 	call	20b04 <__modsi3>
   20970:	e0bffec5 	stb	r2,-5(fp)
  msg[2] = sseg_conv_hex(hex);
   20974:	e0bffec3 	ldbu	r2,-5(fp)
   20978:	1009883a 	mov	r4,r2
   2097c:	00202600 	call	20260 <sseg_conv_hex>
   20980:	e0bffe45 	stb	r2,-7(fp)
  hex = pd / 100; //100 digit
   20984:	e0bfff17 	ldw	r2,-4(fp)
   20988:	01401904 	movi	r5,100
   2098c:	1009883a 	mov	r4,r2
   20990:	0020a840 	call	20a84 <__divsi3>
   20994:	e0bffec5 	stb	r2,-5(fp)
  msg[1] = sseg_conv_hex(hex);
   20998:	e0bffec3 	ldbu	r2,-5(fp)
   2099c:	1009883a 	mov	r4,r2
   209a0:	00202600 	call	20260 <sseg_conv_hex>
   209a4:	e0bffe05 	stb	r2,-8(fp)
  // specify pattern for the most significant digit
  if (cmd.pause) {
   209a8:	e0bffa17 	ldw	r2,-24(fp)
   209ac:	10000326 	beq	r2,zero,209bc <sseg_disp_msg_v1+0xc8>
    msg[0] = 0x0C; // pattern for letter P
   209b0:	00800304 	movi	r2,12
   209b4:	e0bffdc5 	stb	r2,-9(fp)
   209b8:	00000206 	br	209c4 <sseg_disp_msg_v1+0xd0>
  } else {
    msg[0] = 0xFF; // blank
   209bc:	00bfffc4 	movi	r2,-1
   209c0:	e0bffdc5 	stb	r2,-9(fp)
  }
  sseg_disp_ptn(sseg_base, msg);
   209c4:	e0bffdc4 	addi	r2,fp,-9
   209c8:	100b883a 	mov	r5,r2
   209cc:	e13ffc17 	ldw	r4,-16(fp)
   209d0:	00202b00 	call	202b0 <sseg_disp_ptn>
}
   209d4:	0001883a 	nop
   209d8:	e037883a 	mov	sp,fp
   209dc:	dfc00117 	ldw	ra,4(sp)
   209e0:	df000017 	ldw	fp,0(sp)
   209e4:	dec00204 	addi	sp,sp,8
   209e8:	f800283a 	ret

000209ec <led_flash_v1>:

void led_flash_v1(alt_u32 led_base, alt_u32 timer_base, cmd_type cmd) {
   209ec:	defffa04 	addi	sp,sp,-24
   209f0:	df000515 	stw	fp,20(sp)
   209f4:	df000504 	addi	fp,sp,20
   209f8:	e13ffe15 	stw	r4,-8(fp)
   209fc:	e17ffd15 	stw	r5,-12(fp)
   20a00:	e1bffb15 	stw	r6,-20(fp)
   20a04:	e1fffc15 	stw	r7,-16(fp)

  static alt_u8 led_pattern = 0x01;
  int ntick = 0;
   20a08:	e03fff15 	stw	zero,-4(fp)
  if (cmd.pause) { // no toggle if paused asserted
   20a0c:	e0bffb17 	ldw	r2,-20(fp)
   20a10:	1000171e 	bne	r2,zero,20a70 <led_flash_v1+0x84>
    return;
  }
  led_pattern ^= 0x03; //toggle 2 LSBs of LEDs
   20a14:	d0a00003 	ldbu	r2,-32768(gp)
   20a18:	108000dc 	xori	r2,r2,3
   20a1c:	d0a00005 	stb	r2,-32768(gp)
  pio_write(led_base, led_pattern); // write LEDs
   20a20:	e0bffe17 	ldw	r2,-8(fp)
   20a24:	d0e00003 	ldbu	r3,-32768(gp)
   20a28:	18c03fcc 	andi	r3,r3,255
   20a2c:	10c00035 	stwio	r3,0(r2)
  while (ntick < cmd.prd) {
   20a30:	00000b06 	br	20a60 <led_flash_v1+0x74>
    if (timer_read_tick(timer_base) == 1) {
   20a34:	e0bffd17 	ldw	r2,-12(fp)
   20a38:	10800037 	ldwio	r2,0(r2)
   20a3c:	1080004c 	andi	r2,r2,1
   20a40:	10800058 	cmpnei	r2,r2,1
   20a44:	1000061e 	bne	r2,zero,20a60 <led_flash_v1+0x74>
      timer_clear_tick(timer_base);
   20a48:	e0bffd17 	ldw	r2,-12(fp)
   20a4c:	0007883a 	mov	r3,zero
   20a50:	10c00035 	stwio	r3,0(r2)
      ntick++;
   20a54:	e0bfff17 	ldw	r2,-4(fp)
   20a58:	10800044 	addi	r2,r2,1
   20a5c:	e0bfff15 	stw	r2,-4(fp)
  while (ntick < cmd.prd) {
   20a60:	e0bffc17 	ldw	r2,-16(fp)
   20a64:	e0ffff17 	ldw	r3,-4(fp)
   20a68:	18bff216 	blt	r3,r2,20a34 <led_flash_v1+0x48>
   20a6c:	00000106 	br	20a74 <led_flash_v1+0x88>
    return;
   20a70:	0001883a 	nop
    }
  }
}
   20a74:	e037883a 	mov	sp,fp
   20a78:	df000017 	ldw	fp,0(sp)
   20a7c:	dec00104 	addi	sp,sp,4
   20a80:	f800283a 	ret

00020a84 <__divsi3>:
   20a84:	20001a16 	blt	r4,zero,20af0 <__divsi3+0x6c>
   20a88:	000f883a 	mov	r7,zero
   20a8c:	2800020e 	bge	r5,zero,20a98 <__divsi3+0x14>
   20a90:	014bc83a 	sub	r5,zero,r5
   20a94:	39c0005c 	xori	r7,r7,1
   20a98:	200d883a 	mov	r6,r4
   20a9c:	00c00044 	movi	r3,1
   20aa0:	2900092e 	bgeu	r5,r4,20ac8 <__divsi3+0x44>
   20aa4:	00800804 	movi	r2,32
   20aa8:	00c00044 	movi	r3,1
   20aac:	00000106 	br	20ab4 <__divsi3+0x30>
   20ab0:	10001226 	beq	r2,zero,20afc <__divsi3+0x78>
   20ab4:	294b883a 	add	r5,r5,r5
   20ab8:	10bfffc4 	addi	r2,r2,-1
   20abc:	18c7883a 	add	r3,r3,r3
   20ac0:	293ffb36 	bltu	r5,r4,20ab0 <__divsi3+0x2c>
   20ac4:	18000d26 	beq	r3,zero,20afc <__divsi3+0x78>
   20ac8:	0005883a 	mov	r2,zero
   20acc:	31400236 	bltu	r6,r5,20ad8 <__divsi3+0x54>
   20ad0:	314dc83a 	sub	r6,r6,r5
   20ad4:	10c4b03a 	or	r2,r2,r3
   20ad8:	1806d07a 	srli	r3,r3,1
   20adc:	280ad07a 	srli	r5,r5,1
   20ae0:	183ffa1e 	bne	r3,zero,20acc <__divsi3+0x48>
   20ae4:	38000126 	beq	r7,zero,20aec <__divsi3+0x68>
   20ae8:	0085c83a 	sub	r2,zero,r2
   20aec:	f800283a 	ret
   20af0:	0109c83a 	sub	r4,zero,r4
   20af4:	01c00044 	movi	r7,1
   20af8:	003fe406 	br	20a8c <__divsi3+0x8>
   20afc:	0005883a 	mov	r2,zero
   20b00:	003ff806 	br	20ae4 <__divsi3+0x60>

00020b04 <__modsi3>:
   20b04:	20001916 	blt	r4,zero,20b6c <__modsi3+0x68>
   20b08:	000f883a 	mov	r7,zero
   20b0c:	2005883a 	mov	r2,r4
   20b10:	2800010e 	bge	r5,zero,20b18 <__modsi3+0x14>
   20b14:	014bc83a 	sub	r5,zero,r5
   20b18:	00c00044 	movi	r3,1
   20b1c:	2900092e 	bgeu	r5,r4,20b44 <__modsi3+0x40>
   20b20:	01800804 	movi	r6,32
   20b24:	00c00044 	movi	r3,1
   20b28:	00000106 	br	20b30 <__modsi3+0x2c>
   20b2c:	30000d26 	beq	r6,zero,20b64 <__modsi3+0x60>
   20b30:	294b883a 	add	r5,r5,r5
   20b34:	31bfffc4 	addi	r6,r6,-1
   20b38:	18c7883a 	add	r3,r3,r3
   20b3c:	293ffb36 	bltu	r5,r4,20b2c <__modsi3+0x28>
   20b40:	18000826 	beq	r3,zero,20b64 <__modsi3+0x60>
   20b44:	1806d07a 	srli	r3,r3,1
   20b48:	11400136 	bltu	r2,r5,20b50 <__modsi3+0x4c>
   20b4c:	1145c83a 	sub	r2,r2,r5
   20b50:	280ad07a 	srli	r5,r5,1
   20b54:	183ffb1e 	bne	r3,zero,20b44 <__modsi3+0x40>
   20b58:	38000126 	beq	r7,zero,20b60 <__modsi3+0x5c>
   20b5c:	0085c83a 	sub	r2,zero,r2
   20b60:	f800283a 	ret
   20b64:	2005883a 	mov	r2,r4
   20b68:	003ffb06 	br	20b58 <__modsi3+0x54>
   20b6c:	0109c83a 	sub	r4,zero,r4
   20b70:	01c00044 	movi	r7,1
   20b74:	003fe506 	br	20b0c <__modsi3+0x8>

00020b78 <__udivsi3>:
   20b78:	200d883a 	mov	r6,r4
   20b7c:	2900152e 	bgeu	r5,r4,20bd4 <__udivsi3+0x5c>
   20b80:	28001416 	blt	r5,zero,20bd4 <__udivsi3+0x5c>
   20b84:	00800804 	movi	r2,32
   20b88:	00c00044 	movi	r3,1
   20b8c:	00000206 	br	20b98 <__udivsi3+0x20>
   20b90:	10000e26 	beq	r2,zero,20bcc <__udivsi3+0x54>
   20b94:	28000516 	blt	r5,zero,20bac <__udivsi3+0x34>
   20b98:	294b883a 	add	r5,r5,r5
   20b9c:	10bfffc4 	addi	r2,r2,-1
   20ba0:	18c7883a 	add	r3,r3,r3
   20ba4:	293ffa36 	bltu	r5,r4,20b90 <__udivsi3+0x18>
   20ba8:	18000826 	beq	r3,zero,20bcc <__udivsi3+0x54>
   20bac:	0005883a 	mov	r2,zero
   20bb0:	31400236 	bltu	r6,r5,20bbc <__udivsi3+0x44>
   20bb4:	314dc83a 	sub	r6,r6,r5
   20bb8:	10c4b03a 	or	r2,r2,r3
   20bbc:	1806d07a 	srli	r3,r3,1
   20bc0:	280ad07a 	srli	r5,r5,1
   20bc4:	183ffa1e 	bne	r3,zero,20bb0 <__udivsi3+0x38>
   20bc8:	f800283a 	ret
   20bcc:	0005883a 	mov	r2,zero
   20bd0:	f800283a 	ret
   20bd4:	00c00044 	movi	r3,1
   20bd8:	003ff406 	br	20bac <__udivsi3+0x34>

00020bdc <__umodsi3>:
   20bdc:	2005883a 	mov	r2,r4
   20be0:	2900132e 	bgeu	r5,r4,20c30 <__umodsi3+0x54>
   20be4:	28001216 	blt	r5,zero,20c30 <__umodsi3+0x54>
   20be8:	01800804 	movi	r6,32
   20bec:	00c00044 	movi	r3,1
   20bf0:	00000206 	br	20bfc <__umodsi3+0x20>
   20bf4:	30000c26 	beq	r6,zero,20c28 <__umodsi3+0x4c>
   20bf8:	28000516 	blt	r5,zero,20c10 <__umodsi3+0x34>
   20bfc:	294b883a 	add	r5,r5,r5
   20c00:	31bfffc4 	addi	r6,r6,-1
   20c04:	18c7883a 	add	r3,r3,r3
   20c08:	293ffa36 	bltu	r5,r4,20bf4 <__umodsi3+0x18>
   20c0c:	18000626 	beq	r3,zero,20c28 <__umodsi3+0x4c>
   20c10:	1806d07a 	srli	r3,r3,1
   20c14:	11400136 	bltu	r2,r5,20c1c <__umodsi3+0x40>
   20c18:	1145c83a 	sub	r2,r2,r5
   20c1c:	280ad07a 	srli	r5,r5,1
   20c20:	183ffb1e 	bne	r3,zero,20c10 <__umodsi3+0x34>
   20c24:	f800283a 	ret
   20c28:	2005883a 	mov	r2,r4
   20c2c:	f800283a 	ret
   20c30:	00c00044 	movi	r3,1
   20c34:	003ff606 	br	20c10 <__umodsi3+0x34>

00020c38 <fileno>:
   20c38:	00800134 	movhi	r2,4
   20c3c:	10adac17 	ldw	r2,-18768(r2)
   20c40:	defffe04 	addi	sp,sp,-8
   20c44:	dc000015 	stw	r16,0(sp)
   20c48:	dfc00115 	stw	ra,4(sp)
   20c4c:	2021883a 	mov	r16,r4
   20c50:	10000226 	beq	r2,zero,20c5c <fileno+0x24>
   20c54:	10c00e17 	ldw	r3,56(r2)
   20c58:	18000726 	beq	r3,zero,20c78 <fileno+0x40>
   20c5c:	8080030f 	ldh	r2,12(r16)
   20c60:	10000826 	beq	r2,zero,20c84 <fileno+0x4c>
   20c64:	8080038f 	ldh	r2,14(r16)
   20c68:	dfc00117 	ldw	ra,4(sp)
   20c6c:	dc000017 	ldw	r16,0(sp)
   20c70:	dec00204 	addi	sp,sp,8
   20c74:	f800283a 	ret
   20c78:	1009883a 	mov	r4,r2
   20c7c:	0020fe80 	call	20fe8 <__sinit>
   20c80:	003ff606 	br	20c5c <fileno+0x24>
   20c84:	00800134 	movhi	r2,4
   20c88:	10edac17 	ldw	r3,-18768(r2)
   20c8c:	01000244 	movi	r4,9
   20c90:	00bfffc4 	movi	r2,-1
   20c94:	19000015 	stw	r4,0(r3)
   20c98:	003ff306 	br	20c68 <fileno+0x30>

00020c9c <__fp_lock>:
   20c9c:	0005883a 	mov	r2,zero
   20ca0:	f800283a 	ret

00020ca4 <_cleanup_r>:
   20ca4:	014000b4 	movhi	r5,2
   20ca8:	295d5504 	addi	r5,r5,30036
   20cac:	00210c81 	jmpi	210c8 <_fwalk_reent>

00020cb0 <__fp_unlock>:
   20cb0:	0005883a 	mov	r2,zero
   20cb4:	f800283a 	ret

00020cb8 <__sinit.part.0>:
   20cb8:	00c000b4 	movhi	r3,2
   20cbc:	20800117 	ldw	r2,4(r4)
   20cc0:	18c32904 	addi	r3,r3,3236
   20cc4:	20c00f15 	stw	r3,60(r4)
   20cc8:	2140bb04 	addi	r5,r4,748
   20ccc:	00c000c4 	movi	r3,3
   20cd0:	20c0b915 	stw	r3,740(r4)
   20cd4:	2140ba15 	stw	r5,744(r4)
   20cd8:	2000b815 	stw	zero,736(r4)
   20cdc:	10001705 	stb	zero,92(r2)
   20ce0:	10001745 	stb	zero,93(r2)
   20ce4:	10001785 	stb	zero,94(r2)
   20ce8:	100017c5 	stb	zero,95(r2)
   20cec:	10001805 	stb	zero,96(r2)
   20cf0:	10001845 	stb	zero,97(r2)
   20cf4:	10001885 	stb	zero,98(r2)
   20cf8:	100018c5 	stb	zero,99(r2)
   20cfc:	00c00104 	movi	r3,4
   20d00:	10c00315 	stw	r3,12(r2)
   20d04:	020000b4 	movhi	r8,2
   20d08:	20c00217 	ldw	r3,8(r4)
   20d0c:	01c000b4 	movhi	r7,2
   20d10:	018000b4 	movhi	r6,2
   20d14:	014000b4 	movhi	r5,2
   20d18:	42075404 	addi	r8,r8,7504
   20d1c:	39c76b04 	addi	r7,r7,7596
   20d20:	31878b04 	addi	r6,r6,7724
   20d24:	2947a204 	addi	r5,r5,7816
   20d28:	02400074 	movhi	r9,1
   20d2c:	10001915 	stw	zero,100(r2)
   20d30:	10000015 	stw	zero,0(r2)
   20d34:	10000115 	stw	zero,4(r2)
   20d38:	10000215 	stw	zero,8(r2)
   20d3c:	10000415 	stw	zero,16(r2)
   20d40:	10000515 	stw	zero,20(r2)
   20d44:	10000615 	stw	zero,24(r2)
   20d48:	10800715 	stw	r2,28(r2)
   20d4c:	12000815 	stw	r8,32(r2)
   20d50:	11c00915 	stw	r7,36(r2)
   20d54:	11800a15 	stw	r6,40(r2)
   20d58:	11400b15 	stw	r5,44(r2)
   20d5c:	4a400284 	addi	r9,r9,10
   20d60:	1a400315 	stw	r9,12(r3)
   20d64:	18001915 	stw	zero,100(r3)
   20d68:	18000015 	stw	zero,0(r3)
   20d6c:	18000115 	stw	zero,4(r3)
   20d70:	18000215 	stw	zero,8(r3)
   20d74:	18000415 	stw	zero,16(r3)
   20d78:	18001705 	stb	zero,92(r3)
   20d7c:	18001745 	stb	zero,93(r3)
   20d80:	18001785 	stb	zero,94(r3)
   20d84:	180017c5 	stb	zero,95(r3)
   20d88:	18001805 	stb	zero,96(r3)
   20d8c:	18001845 	stb	zero,97(r3)
   20d90:	18001885 	stb	zero,98(r3)
   20d94:	180018c5 	stb	zero,99(r3)
   20d98:	20800317 	ldw	r2,12(r4)
   20d9c:	024000b4 	movhi	r9,2
   20da0:	18000515 	stw	zero,20(r3)
   20da4:	18000615 	stw	zero,24(r3)
   20da8:	18c00715 	stw	r3,28(r3)
   20dac:	1a000815 	stw	r8,32(r3)
   20db0:	19c00915 	stw	r7,36(r3)
   20db4:	19800a15 	stw	r6,40(r3)
   20db8:	19400b15 	stw	r5,44(r3)
   20dbc:	4a400484 	addi	r9,r9,18
   20dc0:	10001915 	stw	zero,100(r2)
   20dc4:	10000015 	stw	zero,0(r2)
   20dc8:	10000115 	stw	zero,4(r2)
   20dcc:	10000215 	stw	zero,8(r2)
   20dd0:	12400315 	stw	r9,12(r2)
   20dd4:	10000415 	stw	zero,16(r2)
   20dd8:	10000515 	stw	zero,20(r2)
   20ddc:	10000615 	stw	zero,24(r2)
   20de0:	10001705 	stb	zero,92(r2)
   20de4:	10001745 	stb	zero,93(r2)
   20de8:	10001785 	stb	zero,94(r2)
   20dec:	100017c5 	stb	zero,95(r2)
   20df0:	10001805 	stb	zero,96(r2)
   20df4:	10001845 	stb	zero,97(r2)
   20df8:	10001885 	stb	zero,98(r2)
   20dfc:	100018c5 	stb	zero,99(r2)
   20e00:	10800715 	stw	r2,28(r2)
   20e04:	12000815 	stw	r8,32(r2)
   20e08:	11c00915 	stw	r7,36(r2)
   20e0c:	11800a15 	stw	r6,40(r2)
   20e10:	11400b15 	stw	r5,44(r2)
   20e14:	00800044 	movi	r2,1
   20e18:	20800e15 	stw	r2,56(r4)
   20e1c:	f800283a 	ret

00020e20 <__sfmoreglue>:
   20e20:	defffc04 	addi	sp,sp,-16
   20e24:	dc800215 	stw	r18,8(sp)
   20e28:	2825883a 	mov	r18,r5
   20e2c:	dc000015 	stw	r16,0(sp)
   20e30:	01401a04 	movi	r5,104
   20e34:	2021883a 	mov	r16,r4
   20e38:	913fffc4 	addi	r4,r18,-1
   20e3c:	dfc00315 	stw	ra,12(sp)
   20e40:	dc400115 	stw	r17,4(sp)
   20e44:	0033d780 	call	33d78 <__mulsi3>
   20e48:	8009883a 	mov	r4,r16
   20e4c:	11401d04 	addi	r5,r2,116
   20e50:	1023883a 	mov	r17,r2
   20e54:	00211700 	call	21170 <_malloc_r>
   20e58:	1021883a 	mov	r16,r2
   20e5c:	10000726 	beq	r2,zero,20e7c <__sfmoreglue+0x5c>
   20e60:	11000304 	addi	r4,r2,12
   20e64:	10000015 	stw	zero,0(r2)
   20e68:	14800115 	stw	r18,4(r2)
   20e6c:	11000215 	stw	r4,8(r2)
   20e70:	89801a04 	addi	r6,r17,104
   20e74:	000b883a 	mov	r5,zero
   20e78:	0021a540 	call	21a54 <memset>
   20e7c:	8005883a 	mov	r2,r16
   20e80:	dfc00317 	ldw	ra,12(sp)
   20e84:	dc800217 	ldw	r18,8(sp)
   20e88:	dc400117 	ldw	r17,4(sp)
   20e8c:	dc000017 	ldw	r16,0(sp)
   20e90:	dec00404 	addi	sp,sp,16
   20e94:	f800283a 	ret

00020e98 <__sfp>:
   20e98:	defffb04 	addi	sp,sp,-20
   20e9c:	00800134 	movhi	r2,4
   20ea0:	dc400115 	stw	r17,4(sp)
   20ea4:	146dab17 	ldw	r17,-18772(r2)
   20ea8:	dc800215 	stw	r18,8(sp)
   20eac:	dfc00415 	stw	ra,16(sp)
   20eb0:	88800e17 	ldw	r2,56(r17)
   20eb4:	dcc00315 	stw	r19,12(sp)
   20eb8:	dc000015 	stw	r16,0(sp)
   20ebc:	2025883a 	mov	r18,r4
   20ec0:	10002f26 	beq	r2,zero,20f80 <__sfp+0xe8>
   20ec4:	8c40b804 	addi	r17,r17,736
   20ec8:	04c00104 	movi	r19,4
   20ecc:	88800117 	ldw	r2,4(r17)
   20ed0:	8c000217 	ldw	r16,8(r17)
   20ed4:	10bfffc4 	addi	r2,r2,-1
   20ed8:	1000030e 	bge	r2,zero,20ee8 <__sfp+0x50>
   20edc:	00002406 	br	20f70 <__sfp+0xd8>
   20ee0:	84001a04 	addi	r16,r16,104
   20ee4:	28002226 	beq	r5,zero,20f70 <__sfp+0xd8>
   20ee8:	80c0030f 	ldh	r3,12(r16)
   20eec:	10bfffc4 	addi	r2,r2,-1
   20ef0:	117fffd8 	cmpnei	r5,r2,-1
   20ef4:	183ffa1e 	bne	r3,zero,20ee0 <__sfp+0x48>
   20ef8:	00bffff4 	movhi	r2,65535
   20efc:	10800044 	addi	r2,r2,1
   20f00:	80001915 	stw	zero,100(r16)
   20f04:	80000015 	stw	zero,0(r16)
   20f08:	80000115 	stw	zero,4(r16)
   20f0c:	80000215 	stw	zero,8(r16)
   20f10:	80800315 	stw	r2,12(r16)
   20f14:	80000415 	stw	zero,16(r16)
   20f18:	80000515 	stw	zero,20(r16)
   20f1c:	80000615 	stw	zero,24(r16)
   20f20:	80001705 	stb	zero,92(r16)
   20f24:	80001745 	stb	zero,93(r16)
   20f28:	80001785 	stb	zero,94(r16)
   20f2c:	800017c5 	stb	zero,95(r16)
   20f30:	80001805 	stb	zero,96(r16)
   20f34:	80001845 	stb	zero,97(r16)
   20f38:	80001885 	stb	zero,98(r16)
   20f3c:	800018c5 	stb	zero,99(r16)
   20f40:	80000c15 	stw	zero,48(r16)
   20f44:	80000d15 	stw	zero,52(r16)
   20f48:	80001115 	stw	zero,68(r16)
   20f4c:	80001215 	stw	zero,72(r16)
   20f50:	8005883a 	mov	r2,r16
   20f54:	dfc00417 	ldw	ra,16(sp)
   20f58:	dcc00317 	ldw	r19,12(sp)
   20f5c:	dc800217 	ldw	r18,8(sp)
   20f60:	dc400117 	ldw	r17,4(sp)
   20f64:	dc000017 	ldw	r16,0(sp)
   20f68:	dec00504 	addi	sp,sp,20
   20f6c:	f800283a 	ret
   20f70:	8c000017 	ldw	r16,0(r17)
   20f74:	80000526 	beq	r16,zero,20f8c <__sfp+0xf4>
   20f78:	8023883a 	mov	r17,r16
   20f7c:	003fd306 	br	20ecc <__sfp+0x34>
   20f80:	8809883a 	mov	r4,r17
   20f84:	0020cb80 	call	20cb8 <__sinit.part.0>
   20f88:	003fce06 	br	20ec4 <__sfp+0x2c>
   20f8c:	01406b04 	movi	r5,428
   20f90:	9009883a 	mov	r4,r18
   20f94:	00211700 	call	21170 <_malloc_r>
   20f98:	1021883a 	mov	r16,r2
   20f9c:	10000926 	beq	r2,zero,20fc4 <__sfp+0x12c>
   20fa0:	11000304 	addi	r4,r2,12
   20fa4:	10000015 	stw	zero,0(r2)
   20fa8:	14c00115 	stw	r19,4(r2)
   20fac:	11000215 	stw	r4,8(r2)
   20fb0:	01806804 	movi	r6,416
   20fb4:	000b883a 	mov	r5,zero
   20fb8:	0021a540 	call	21a54 <memset>
   20fbc:	8c000015 	stw	r16,0(r17)
   20fc0:	003fed06 	br	20f78 <__sfp+0xe0>
   20fc4:	88000015 	stw	zero,0(r17)
   20fc8:	00800304 	movi	r2,12
   20fcc:	90800015 	stw	r2,0(r18)
   20fd0:	003fdf06 	br	20f50 <__sfp+0xb8>

00020fd4 <_cleanup>:
   20fd4:	00800134 	movhi	r2,4
   20fd8:	112dab17 	ldw	r4,-18772(r2)
   20fdc:	014000b4 	movhi	r5,2
   20fe0:	295d5504 	addi	r5,r5,30036
   20fe4:	00210c81 	jmpi	210c8 <_fwalk_reent>

00020fe8 <__sinit>:
   20fe8:	20800e17 	ldw	r2,56(r4)
   20fec:	10000126 	beq	r2,zero,20ff4 <__sinit+0xc>
   20ff0:	f800283a 	ret
   20ff4:	0020cb81 	jmpi	20cb8 <__sinit.part.0>

00020ff8 <__sfp_lock_acquire>:
   20ff8:	f800283a 	ret

00020ffc <__sfp_lock_release>:
   20ffc:	f800283a 	ret

00021000 <__sinit_lock_acquire>:
   21000:	f800283a 	ret

00021004 <__sinit_lock_release>:
   21004:	f800283a 	ret

00021008 <__fp_lock_all>:
   21008:	00800134 	movhi	r2,4
   2100c:	112dac17 	ldw	r4,-18768(r2)
   21010:	014000b4 	movhi	r5,2
   21014:	29432704 	addi	r5,r5,3228
   21018:	00210301 	jmpi	21030 <_fwalk>

0002101c <__fp_unlock_all>:
   2101c:	00800134 	movhi	r2,4
   21020:	112dac17 	ldw	r4,-18768(r2)
   21024:	014000b4 	movhi	r5,2
   21028:	29432c04 	addi	r5,r5,3248
   2102c:	00210301 	jmpi	21030 <_fwalk>

00021030 <_fwalk>:
   21030:	defffa04 	addi	sp,sp,-24
   21034:	dd000415 	stw	r20,16(sp)
   21038:	dcc00315 	stw	r19,12(sp)
   2103c:	dc800215 	stw	r18,8(sp)
   21040:	dfc00515 	stw	ra,20(sp)
   21044:	dc400115 	stw	r17,4(sp)
   21048:	dc000015 	stw	r16,0(sp)
   2104c:	2827883a 	mov	r19,r5
   21050:	2480b804 	addi	r18,r4,736
   21054:	0029883a 	mov	r20,zero
   21058:	94400117 	ldw	r17,4(r18)
   2105c:	94000217 	ldw	r16,8(r18)
   21060:	8c7fffc4 	addi	r17,r17,-1
   21064:	88000d16 	blt	r17,zero,2109c <_fwalk+0x6c>
   21068:	8080030b 	ldhu	r2,12(r16)
   2106c:	8c7fffc4 	addi	r17,r17,-1
   21070:	108000b0 	cmpltui	r2,r2,2
   21074:	1000061e 	bne	r2,zero,21090 <_fwalk+0x60>
   21078:	8080038f 	ldh	r2,14(r16)
   2107c:	8009883a 	mov	r4,r16
   21080:	10bfffe0 	cmpeqi	r2,r2,-1
   21084:	1000021e 	bne	r2,zero,21090 <_fwalk+0x60>
   21088:	983ee83a 	callr	r19
   2108c:	a0a8b03a 	or	r20,r20,r2
   21090:	88bfffd8 	cmpnei	r2,r17,-1
   21094:	84001a04 	addi	r16,r16,104
   21098:	103ff31e 	bne	r2,zero,21068 <_fwalk+0x38>
   2109c:	94800017 	ldw	r18,0(r18)
   210a0:	903fed1e 	bne	r18,zero,21058 <_fwalk+0x28>
   210a4:	a005883a 	mov	r2,r20
   210a8:	dfc00517 	ldw	ra,20(sp)
   210ac:	dd000417 	ldw	r20,16(sp)
   210b0:	dcc00317 	ldw	r19,12(sp)
   210b4:	dc800217 	ldw	r18,8(sp)
   210b8:	dc400117 	ldw	r17,4(sp)
   210bc:	dc000017 	ldw	r16,0(sp)
   210c0:	dec00604 	addi	sp,sp,24
   210c4:	f800283a 	ret

000210c8 <_fwalk_reent>:
   210c8:	defff904 	addi	sp,sp,-28
   210cc:	dd400515 	stw	r21,20(sp)
   210d0:	dd000415 	stw	r20,16(sp)
   210d4:	dcc00315 	stw	r19,12(sp)
   210d8:	dc800215 	stw	r18,8(sp)
   210dc:	dfc00615 	stw	ra,24(sp)
   210e0:	dc400115 	stw	r17,4(sp)
   210e4:	dc000015 	stw	r16,0(sp)
   210e8:	202b883a 	mov	r21,r4
   210ec:	2827883a 	mov	r19,r5
   210f0:	2480b804 	addi	r18,r4,736
   210f4:	0029883a 	mov	r20,zero
   210f8:	94400117 	ldw	r17,4(r18)
   210fc:	94000217 	ldw	r16,8(r18)
   21100:	8c7fffc4 	addi	r17,r17,-1
   21104:	88000e16 	blt	r17,zero,21140 <_fwalk_reent+0x78>
   21108:	8080030b 	ldhu	r2,12(r16)
   2110c:	8c7fffc4 	addi	r17,r17,-1
   21110:	108000b0 	cmpltui	r2,r2,2
   21114:	1000071e 	bne	r2,zero,21134 <_fwalk_reent+0x6c>
   21118:	8080038f 	ldh	r2,14(r16)
   2111c:	800b883a 	mov	r5,r16
   21120:	a809883a 	mov	r4,r21
   21124:	10bfffe0 	cmpeqi	r2,r2,-1
   21128:	1000021e 	bne	r2,zero,21134 <_fwalk_reent+0x6c>
   2112c:	983ee83a 	callr	r19
   21130:	a0a8b03a 	or	r20,r20,r2
   21134:	88bfffd8 	cmpnei	r2,r17,-1
   21138:	84001a04 	addi	r16,r16,104
   2113c:	103ff21e 	bne	r2,zero,21108 <_fwalk_reent+0x40>
   21140:	94800017 	ldw	r18,0(r18)
   21144:	903fec1e 	bne	r18,zero,210f8 <_fwalk_reent+0x30>
   21148:	a005883a 	mov	r2,r20
   2114c:	dfc00617 	ldw	ra,24(sp)
   21150:	dd400517 	ldw	r21,20(sp)
   21154:	dd000417 	ldw	r20,16(sp)
   21158:	dcc00317 	ldw	r19,12(sp)
   2115c:	dc800217 	ldw	r18,8(sp)
   21160:	dc400117 	ldw	r17,4(sp)
   21164:	dc000017 	ldw	r16,0(sp)
   21168:	dec00704 	addi	sp,sp,28
   2116c:	f800283a 	ret

00021170 <_malloc_r>:
   21170:	defff604 	addi	sp,sp,-40
   21174:	dc400115 	stw	r17,4(sp)
   21178:	2c4002c4 	addi	r17,r5,11
   2117c:	dc800215 	stw	r18,8(sp)
   21180:	dfc00915 	stw	ra,36(sp)
   21184:	df000815 	stw	fp,32(sp)
   21188:	ddc00715 	stw	r23,28(sp)
   2118c:	dd800615 	stw	r22,24(sp)
   21190:	dd400515 	stw	r21,20(sp)
   21194:	dd000415 	stw	r20,16(sp)
   21198:	dcc00315 	stw	r19,12(sp)
   2119c:	dc000015 	stw	r16,0(sp)
   211a0:	888005e8 	cmpgeui	r2,r17,23
   211a4:	2025883a 	mov	r18,r4
   211a8:	10001b1e 	bne	r2,zero,21218 <_malloc_r+0xa8>
   211ac:	29400468 	cmpgeui	r5,r5,17
   211b0:	2800821e 	bne	r5,zero,213bc <_malloc_r+0x24c>
   211b4:	00370ac0 	call	370ac <__malloc_lock>
   211b8:	04400404 	movi	r17,16
   211bc:	00800604 	movi	r2,24
   211c0:	01c00084 	movi	r7,2
   211c4:	04c00134 	movhi	r19,4
   211c8:	9ce7cb04 	addi	r19,r19,-24788
   211cc:	9885883a 	add	r2,r19,r2
   211d0:	14000117 	ldw	r16,4(r2)
   211d4:	10fffe04 	addi	r3,r2,-8
   211d8:	80c08b26 	beq	r16,r3,21408 <_malloc_r+0x298>
   211dc:	80800117 	ldw	r2,4(r16)
   211e0:	81000317 	ldw	r4,12(r16)
   211e4:	00ffff04 	movi	r3,-4
   211e8:	10c4703a 	and	r2,r2,r3
   211ec:	81400217 	ldw	r5,8(r16)
   211f0:	8085883a 	add	r2,r16,r2
   211f4:	10c00117 	ldw	r3,4(r2)
   211f8:	29000315 	stw	r4,12(r5)
   211fc:	21400215 	stw	r5,8(r4)
   21200:	18c00054 	ori	r3,r3,1
   21204:	10c00115 	stw	r3,4(r2)
   21208:	9009883a 	mov	r4,r18
   2120c:	00370d00 	call	370d0 <__malloc_unlock>
   21210:	80800204 	addi	r2,r16,8
   21214:	00006c06 	br	213c8 <_malloc_r+0x258>
   21218:	00bffe04 	movi	r2,-8
   2121c:	88a2703a 	and	r17,r17,r2
   21220:	88006616 	blt	r17,zero,213bc <_malloc_r+0x24c>
   21224:	89406536 	bltu	r17,r5,213bc <_malloc_r+0x24c>
   21228:	00370ac0 	call	370ac <__malloc_lock>
   2122c:	88807e28 	cmpgeui	r2,r17,504
   21230:	10012326 	beq	r2,zero,216c0 <_malloc_r+0x550>
   21234:	8804d27a 	srli	r2,r17,9
   21238:	10006f26 	beq	r2,zero,213f8 <_malloc_r+0x288>
   2123c:	10c00168 	cmpgeui	r3,r2,5
   21240:	1800ff1e 	bne	r3,zero,21640 <_malloc_r+0x4d0>
   21244:	8804d1ba 	srli	r2,r17,6
   21248:	11c00e44 	addi	r7,r2,57
   2124c:	380890fa 	slli	r4,r7,3
   21250:	12000e04 	addi	r8,r2,56
   21254:	04c00134 	movhi	r19,4
   21258:	9ce7cb04 	addi	r19,r19,-24788
   2125c:	9909883a 	add	r4,r19,r4
   21260:	24000117 	ldw	r16,4(r4)
   21264:	213ffe04 	addi	r4,r4,-8
   21268:	24000b26 	beq	r4,r16,21298 <_malloc_r+0x128>
   2126c:	01bfff04 	movi	r6,-4
   21270:	00000306 	br	21280 <_malloc_r+0x110>
   21274:	1800d70e 	bge	r3,zero,215d4 <_malloc_r+0x464>
   21278:	84000317 	ldw	r16,12(r16)
   2127c:	24000626 	beq	r4,r16,21298 <_malloc_r+0x128>
   21280:	80800117 	ldw	r2,4(r16)
   21284:	1184703a 	and	r2,r2,r6
   21288:	1447c83a 	sub	r3,r2,r17
   2128c:	19400408 	cmpgei	r5,r3,16
   21290:	283ff826 	beq	r5,zero,21274 <_malloc_r+0x104>
   21294:	400f883a 	mov	r7,r8
   21298:	9c000417 	ldw	r16,16(r19)
   2129c:	02400134 	movhi	r9,4
   212a0:	4a67cd04 	addi	r9,r9,-24780
   212a4:	82405f26 	beq	r16,r9,21424 <_malloc_r+0x2b4>
   212a8:	80800117 	ldw	r2,4(r16)
   212ac:	00ffff04 	movi	r3,-4
   212b0:	10c4703a 	and	r2,r2,r3
   212b4:	1447c83a 	sub	r3,r2,r17
   212b8:	19000410 	cmplti	r4,r3,16
   212bc:	20010b26 	beq	r4,zero,216ec <_malloc_r+0x57c>
   212c0:	9a400515 	stw	r9,20(r19)
   212c4:	9a400415 	stw	r9,16(r19)
   212c8:	1801000e 	bge	r3,zero,216cc <_malloc_r+0x55c>
   212cc:	10c08028 	cmpgeui	r3,r2,512
   212d0:	1800c21e 	bne	r3,zero,215dc <_malloc_r+0x46c>
   212d4:	1006d0fa 	srli	r3,r2,3
   212d8:	1008d17a 	srli	r4,r2,5
   212dc:	00800044 	movi	r2,1
   212e0:	18c00044 	addi	r3,r3,1
   212e4:	180690fa 	slli	r3,r3,3
   212e8:	99400117 	ldw	r5,4(r19)
   212ec:	1104983a 	sll	r2,r2,r4
   212f0:	98c7883a 	add	r3,r19,r3
   212f4:	19000017 	ldw	r4,0(r3)
   212f8:	1144b03a 	or	r2,r2,r5
   212fc:	197ffe04 	addi	r5,r3,-8
   21300:	81400315 	stw	r5,12(r16)
   21304:	81000215 	stw	r4,8(r16)
   21308:	98800115 	stw	r2,4(r19)
   2130c:	1c000015 	stw	r16,0(r3)
   21310:	24000315 	stw	r16,12(r4)
   21314:	3807d0ba 	srai	r3,r7,2
   21318:	01000044 	movi	r4,1
   2131c:	20c8983a 	sll	r4,r4,r3
   21320:	11004536 	bltu	r2,r4,21438 <_malloc_r+0x2c8>
   21324:	2086703a 	and	r3,r4,r2
   21328:	18000a1e 	bne	r3,zero,21354 <_malloc_r+0x1e4>
   2132c:	2109883a 	add	r4,r4,r4
   21330:	00ffff04 	movi	r3,-4
   21334:	38c6703a 	and	r3,r7,r3
   21338:	208a703a 	and	r5,r4,r2
   2133c:	19c00104 	addi	r7,r3,4
   21340:	2800041e 	bne	r5,zero,21354 <_malloc_r+0x1e4>
   21344:	2109883a 	add	r4,r4,r4
   21348:	2086703a 	and	r3,r4,r2
   2134c:	39c00104 	addi	r7,r7,4
   21350:	183ffc26 	beq	r3,zero,21344 <_malloc_r+0x1d4>
   21354:	02bfff04 	movi	r10,-4
   21358:	381690fa 	slli	r11,r7,3
   2135c:	3819883a 	mov	r12,r7
   21360:	9ad7883a 	add	r11,r19,r11
   21364:	5811883a 	mov	r8,r11
   21368:	40800317 	ldw	r2,12(r8)
   2136c:	4080bd26 	beq	r8,r2,21664 <_malloc_r+0x4f4>
   21370:	10c00117 	ldw	r3,4(r2)
   21374:	1021883a 	mov	r16,r2
   21378:	10800317 	ldw	r2,12(r2)
   2137c:	1a86703a 	and	r3,r3,r10
   21380:	1c4bc83a 	sub	r5,r3,r17
   21384:	29800410 	cmplti	r6,r5,16
   21388:	3000bb26 	beq	r6,zero,21678 <_malloc_r+0x508>
   2138c:	283ff716 	blt	r5,zero,2136c <_malloc_r+0x1fc>
   21390:	80c7883a 	add	r3,r16,r3
   21394:	19400117 	ldw	r5,4(r3)
   21398:	81800217 	ldw	r6,8(r16)
   2139c:	9009883a 	mov	r4,r18
   213a0:	29400054 	ori	r5,r5,1
   213a4:	19400115 	stw	r5,4(r3)
   213a8:	30800315 	stw	r2,12(r6)
   213ac:	11800215 	stw	r6,8(r2)
   213b0:	00370d00 	call	370d0 <__malloc_unlock>
   213b4:	80800204 	addi	r2,r16,8
   213b8:	00000306 	br	213c8 <_malloc_r+0x258>
   213bc:	00800304 	movi	r2,12
   213c0:	90800015 	stw	r2,0(r18)
   213c4:	0005883a 	mov	r2,zero
   213c8:	dfc00917 	ldw	ra,36(sp)
   213cc:	df000817 	ldw	fp,32(sp)
   213d0:	ddc00717 	ldw	r23,28(sp)
   213d4:	dd800617 	ldw	r22,24(sp)
   213d8:	dd400517 	ldw	r21,20(sp)
   213dc:	dd000417 	ldw	r20,16(sp)
   213e0:	dcc00317 	ldw	r19,12(sp)
   213e4:	dc800217 	ldw	r18,8(sp)
   213e8:	dc400117 	ldw	r17,4(sp)
   213ec:	dc000017 	ldw	r16,0(sp)
   213f0:	dec00a04 	addi	sp,sp,40
   213f4:	f800283a 	ret
   213f8:	01008004 	movi	r4,512
   213fc:	01c01004 	movi	r7,64
   21400:	02000fc4 	movi	r8,63
   21404:	003f9306 	br	21254 <_malloc_r+0xe4>
   21408:	14000317 	ldw	r16,12(r2)
   2140c:	39c00084 	addi	r7,r7,2
   21410:	143f721e 	bne	r2,r16,211dc <_malloc_r+0x6c>
   21414:	9c000417 	ldw	r16,16(r19)
   21418:	02400134 	movhi	r9,4
   2141c:	4a67cd04 	addi	r9,r9,-24780
   21420:	827fa11e 	bne	r16,r9,212a8 <_malloc_r+0x138>
   21424:	3807d0ba 	srai	r3,r7,2
   21428:	01000044 	movi	r4,1
   2142c:	98800117 	ldw	r2,4(r19)
   21430:	20c8983a 	sll	r4,r4,r3
   21434:	113fbb2e 	bgeu	r2,r4,21324 <_malloc_r+0x1b4>
   21438:	9c000217 	ldw	r16,8(r19)
   2143c:	00bfff04 	movi	r2,-4
   21440:	85800117 	ldw	r22,4(r16)
   21444:	b0ac703a 	and	r22,r22,r2
   21448:	b4400336 	bltu	r22,r17,21458 <_malloc_r+0x2e8>
   2144c:	b445c83a 	sub	r2,r22,r17
   21450:	10c00408 	cmpgei	r3,r2,16
   21454:	1800551e 	bne	r3,zero,215ac <_malloc_r+0x43c>
   21458:	00800134 	movhi	r2,4
   2145c:	10adad17 	ldw	r2,-18764(r2)
   21460:	00c00134 	movhi	r3,4
   21464:	1d74b517 	ldw	r21,-11564(r3)
   21468:	10bfffd8 	cmpnei	r2,r2,-1
   2146c:	85b9883a 	add	fp,r16,r22
   21470:	8d6b883a 	add	r21,r17,r21
   21474:	1000d726 	beq	r2,zero,217d4 <_malloc_r+0x664>
   21478:	ad4403c4 	addi	r21,r21,4111
   2147c:	00bc0004 	movi	r2,-4096
   21480:	a8aa703a 	and	r21,r21,r2
   21484:	a80b883a 	mov	r5,r21
   21488:	9009883a 	mov	r4,r18
   2148c:	0021c8c0 	call	21c8c <_sbrk_r>
   21490:	102f883a 	mov	r23,r2
   21494:	10bfffd8 	cmpnei	r2,r2,-1
   21498:	1000a926 	beq	r2,zero,21740 <_malloc_r+0x5d0>
   2149c:	bf00a736 	bltu	r23,fp,2173c <_malloc_r+0x5cc>
   214a0:	00800134 	movhi	r2,4
   214a4:	1534c017 	ldw	r20,-11520(r2)
   214a8:	ad29883a 	add	r20,r21,r20
   214ac:	1534c015 	stw	r20,-11520(r2)
   214b0:	a007883a 	mov	r3,r20
   214b4:	e5c0ed26 	beq	fp,r23,2186c <_malloc_r+0x6fc>
   214b8:	00800134 	movhi	r2,4
   214bc:	10adad17 	ldw	r2,-18764(r2)
   214c0:	10bfffd8 	cmpnei	r2,r2,-1
   214c4:	1000f026 	beq	r2,zero,21888 <_malloc_r+0x718>
   214c8:	bf05c83a 	sub	r2,r23,fp
   214cc:	10c5883a 	add	r2,r2,r3
   214d0:	00c00134 	movhi	r3,4
   214d4:	18b4c015 	stw	r2,-11520(r3)
   214d8:	bf0001cc 	andi	fp,r23,7
   214dc:	e000c626 	beq	fp,zero,217f8 <_malloc_r+0x688>
   214e0:	bf2fc83a 	sub	r23,r23,fp
   214e4:	bdc00204 	addi	r23,r23,8
   214e8:	05040204 	movi	r20,4104
   214ec:	a729c83a 	sub	r20,r20,fp
   214f0:	bd6b883a 	add	r21,r23,r21
   214f4:	a569c83a 	sub	r20,r20,r21
   214f8:	a503ffcc 	andi	r20,r20,4095
   214fc:	a00b883a 	mov	r5,r20
   21500:	9009883a 	mov	r4,r18
   21504:	0021c8c0 	call	21c8c <_sbrk_r>
   21508:	10ffffe0 	cmpeqi	r3,r2,-1
   2150c:	1800f41e 	bne	r3,zero,218e0 <_malloc_r+0x770>
   21510:	15c5c83a 	sub	r2,r2,r23
   21514:	152b883a 	add	r21,r2,r20
   21518:	00800134 	movhi	r2,4
   2151c:	10b4c017 	ldw	r2,-11520(r2)
   21520:	9dc00215 	stw	r23,8(r19)
   21524:	ad400054 	ori	r21,r21,1
   21528:	a0a9883a 	add	r20,r20,r2
   2152c:	00800134 	movhi	r2,4
   21530:	1534c015 	stw	r20,-11520(r2)
   21534:	bd400115 	stw	r21,4(r23)
   21538:	84c0d626 	beq	r16,r19,21894 <_malloc_r+0x724>
   2153c:	b0800428 	cmpgeui	r2,r22,16
   21540:	1000d626 	beq	r2,zero,2189c <_malloc_r+0x72c>
   21544:	80c00117 	ldw	r3,4(r16)
   21548:	013ffe04 	movi	r4,-8
   2154c:	b0bffd04 	addi	r2,r22,-12
   21550:	1104703a 	and	r2,r2,r4
   21554:	18c0004c 	andi	r3,r3,1
   21558:	1886b03a 	or	r3,r3,r2
   2155c:	80c00115 	stw	r3,4(r16)
   21560:	01000144 	movi	r4,5
   21564:	8087883a 	add	r3,r16,r2
   21568:	19000115 	stw	r4,4(r3)
   2156c:	19000215 	stw	r4,8(r3)
   21570:	10800428 	cmpgeui	r2,r2,16
   21574:	1000df1e 	bne	r2,zero,218f4 <_malloc_r+0x784>
   21578:	bd400117 	ldw	r21,4(r23)
   2157c:	b821883a 	mov	r16,r23
   21580:	00800134 	movhi	r2,4
   21584:	10b4b417 	ldw	r2,-11568(r2)
   21588:	1500022e 	bgeu	r2,r20,21594 <_malloc_r+0x424>
   2158c:	00800134 	movhi	r2,4
   21590:	1534b415 	stw	r20,-11568(r2)
   21594:	00800134 	movhi	r2,4
   21598:	10b4b317 	ldw	r2,-11572(r2)
   2159c:	15006a2e 	bgeu	r2,r20,21748 <_malloc_r+0x5d8>
   215a0:	00800134 	movhi	r2,4
   215a4:	1534b315 	stw	r20,-11572(r2)
   215a8:	00006706 	br	21748 <_malloc_r+0x5d8>
   215ac:	88c00054 	ori	r3,r17,1
   215b0:	80c00115 	stw	r3,4(r16)
   215b4:	8463883a 	add	r17,r16,r17
   215b8:	10800054 	ori	r2,r2,1
   215bc:	9c400215 	stw	r17,8(r19)
   215c0:	88800115 	stw	r2,4(r17)
   215c4:	9009883a 	mov	r4,r18
   215c8:	00370d00 	call	370d0 <__malloc_unlock>
   215cc:	80800204 	addi	r2,r16,8
   215d0:	003f7d06 	br	213c8 <_malloc_r+0x258>
   215d4:	81000317 	ldw	r4,12(r16)
   215d8:	003f0406 	br	211ec <_malloc_r+0x7c>
   215dc:	1006d27a 	srli	r3,r2,9
   215e0:	19000168 	cmpgeui	r4,r3,5
   215e4:	20005026 	beq	r4,zero,21728 <_malloc_r+0x5b8>
   215e8:	19000568 	cmpgeui	r4,r3,21
   215ec:	20008c1e 	bne	r4,zero,21820 <_malloc_r+0x6b0>
   215f0:	19401704 	addi	r5,r3,92
   215f4:	280a90fa 	slli	r5,r5,3
   215f8:	190016c4 	addi	r4,r3,91
   215fc:	994b883a 	add	r5,r19,r5
   21600:	28c00017 	ldw	r3,0(r5)
   21604:	297ffe04 	addi	r5,r5,-8
   21608:	28c07426 	beq	r5,r3,217dc <_malloc_r+0x66c>
   2160c:	01bfff04 	movi	r6,-4
   21610:	19000117 	ldw	r4,4(r3)
   21614:	2188703a 	and	r4,r4,r6
   21618:	1100022e 	bgeu	r2,r4,21624 <_malloc_r+0x4b4>
   2161c:	18c00217 	ldw	r3,8(r3)
   21620:	28fffb1e 	bne	r5,r3,21610 <_malloc_r+0x4a0>
   21624:	19400317 	ldw	r5,12(r3)
   21628:	98800117 	ldw	r2,4(r19)
   2162c:	81400315 	stw	r5,12(r16)
   21630:	80c00215 	stw	r3,8(r16)
   21634:	2c000215 	stw	r16,8(r5)
   21638:	1c000315 	stw	r16,12(r3)
   2163c:	003f3506 	br	21314 <_malloc_r+0x1a4>
   21640:	10c00568 	cmpgeui	r3,r2,21
   21644:	18004a26 	beq	r3,zero,21770 <_malloc_r+0x600>
   21648:	10c01568 	cmpgeui	r3,r2,85
   2164c:	18007b1e 	bne	r3,zero,2183c <_malloc_r+0x6cc>
   21650:	8804d33a 	srli	r2,r17,12
   21654:	11c01bc4 	addi	r7,r2,111
   21658:	380890fa 	slli	r4,r7,3
   2165c:	12001b84 	addi	r8,r2,110
   21660:	003efc06 	br	21254 <_malloc_r+0xe4>
   21664:	63000044 	addi	r12,r12,1
   21668:	608000cc 	andi	r2,r12,3
   2166c:	42000204 	addi	r8,r8,8
   21670:	103f3d1e 	bne	r2,zero,21368 <_malloc_r+0x1f8>
   21674:	00004506 	br	2178c <_malloc_r+0x61c>
   21678:	81000217 	ldw	r4,8(r16)
   2167c:	89800054 	ori	r6,r17,1
   21680:	81800115 	stw	r6,4(r16)
   21684:	20800315 	stw	r2,12(r4)
   21688:	11000215 	stw	r4,8(r2)
   2168c:	8463883a 	add	r17,r16,r17
   21690:	9c400515 	stw	r17,20(r19)
   21694:	9c400415 	stw	r17,16(r19)
   21698:	28800054 	ori	r2,r5,1
   2169c:	88800115 	stw	r2,4(r17)
   216a0:	8a400315 	stw	r9,12(r17)
   216a4:	8a400215 	stw	r9,8(r17)
   216a8:	80c7883a 	add	r3,r16,r3
   216ac:	19400015 	stw	r5,0(r3)
   216b0:	9009883a 	mov	r4,r18
   216b4:	00370d00 	call	370d0 <__malloc_unlock>
   216b8:	80800204 	addi	r2,r16,8
   216bc:	003f4206 	br	213c8 <_malloc_r+0x258>
   216c0:	880ed0fa 	srli	r7,r17,3
   216c4:	88800204 	addi	r2,r17,8
   216c8:	003ebe06 	br	211c4 <_malloc_r+0x54>
   216cc:	8085883a 	add	r2,r16,r2
   216d0:	10c00117 	ldw	r3,4(r2)
   216d4:	9009883a 	mov	r4,r18
   216d8:	18c00054 	ori	r3,r3,1
   216dc:	10c00115 	stw	r3,4(r2)
   216e0:	00370d00 	call	370d0 <__malloc_unlock>
   216e4:	80800204 	addi	r2,r16,8
   216e8:	003f3706 	br	213c8 <_malloc_r+0x258>
   216ec:	89000054 	ori	r4,r17,1
   216f0:	81000115 	stw	r4,4(r16)
   216f4:	8463883a 	add	r17,r16,r17
   216f8:	9c400515 	stw	r17,20(r19)
   216fc:	9c400415 	stw	r17,16(r19)
   21700:	19000054 	ori	r4,r3,1
   21704:	89000115 	stw	r4,4(r17)
   21708:	8085883a 	add	r2,r16,r2
   2170c:	8a400315 	stw	r9,12(r17)
   21710:	8a400215 	stw	r9,8(r17)
   21714:	10c00015 	stw	r3,0(r2)
   21718:	9009883a 	mov	r4,r18
   2171c:	00370d00 	call	370d0 <__malloc_unlock>
   21720:	80800204 	addi	r2,r16,8
   21724:	003f2806 	br	213c8 <_malloc_r+0x258>
   21728:	1006d1ba 	srli	r3,r2,6
   2172c:	19400e44 	addi	r5,r3,57
   21730:	280a90fa 	slli	r5,r5,3
   21734:	19000e04 	addi	r4,r3,56
   21738:	003fb006 	br	215fc <_malloc_r+0x48c>
   2173c:	84c04626 	beq	r16,r19,21858 <_malloc_r+0x6e8>
   21740:	9c000217 	ldw	r16,8(r19)
   21744:	85400117 	ldw	r21,4(r16)
   21748:	00bfff04 	movi	r2,-4
   2174c:	a8aa703a 	and	r21,r21,r2
   21750:	ac45c83a 	sub	r2,r21,r17
   21754:	ac400236 	bltu	r21,r17,21760 <_malloc_r+0x5f0>
   21758:	10c00408 	cmpgei	r3,r2,16
   2175c:	183f931e 	bne	r3,zero,215ac <_malloc_r+0x43c>
   21760:	9009883a 	mov	r4,r18
   21764:	00370d00 	call	370d0 <__malloc_unlock>
   21768:	0005883a 	mov	r2,zero
   2176c:	003f1606 	br	213c8 <_malloc_r+0x258>
   21770:	11c01704 	addi	r7,r2,92
   21774:	380890fa 	slli	r4,r7,3
   21778:	120016c4 	addi	r8,r2,91
   2177c:	003eb506 	br	21254 <_malloc_r+0xe4>
   21780:	58800217 	ldw	r2,8(r11)
   21784:	39ffffc4 	addi	r7,r7,-1
   21788:	12c0701e 	bne	r2,r11,2194c <_malloc_r+0x7dc>
   2178c:	388000cc 	andi	r2,r7,3
   21790:	5afffe04 	addi	r11,r11,-8
   21794:	103ffa1e 	bne	r2,zero,21780 <_malloc_r+0x610>
   21798:	98c00117 	ldw	r3,4(r19)
   2179c:	0104303a 	nor	r2,zero,r4
   217a0:	10c4703a 	and	r2,r2,r3
   217a4:	98800115 	stw	r2,4(r19)
   217a8:	2109883a 	add	r4,r4,r4
   217ac:	113f2236 	bltu	r2,r4,21438 <_malloc_r+0x2c8>
   217b0:	203f2126 	beq	r4,zero,21438 <_malloc_r+0x2c8>
   217b4:	2086703a 	and	r3,r4,r2
   217b8:	1800041e 	bne	r3,zero,217cc <_malloc_r+0x65c>
   217bc:	2109883a 	add	r4,r4,r4
   217c0:	2086703a 	and	r3,r4,r2
   217c4:	63000104 	addi	r12,r12,4
   217c8:	183ffc26 	beq	r3,zero,217bc <_malloc_r+0x64c>
   217cc:	600f883a 	mov	r7,r12
   217d0:	003ee106 	br	21358 <_malloc_r+0x1e8>
   217d4:	ad400404 	addi	r21,r21,16
   217d8:	003f2a06 	br	21484 <_malloc_r+0x314>
   217dc:	2009d0ba 	srai	r4,r4,2
   217e0:	00800044 	movi	r2,1
   217e4:	99800117 	ldw	r6,4(r19)
   217e8:	1104983a 	sll	r2,r2,r4
   217ec:	1184b03a 	or	r2,r2,r6
   217f0:	98800115 	stw	r2,4(r19)
   217f4:	003f8d06 	br	2162c <_malloc_r+0x4bc>
   217f8:	bd69883a 	add	r20,r23,r21
   217fc:	0529c83a 	sub	r20,zero,r20
   21800:	a503ffcc 	andi	r20,r20,4095
   21804:	a00b883a 	mov	r5,r20
   21808:	9009883a 	mov	r4,r18
   2180c:	0021c8c0 	call	21c8c <_sbrk_r>
   21810:	10ffffe0 	cmpeqi	r3,r2,-1
   21814:	183f3e26 	beq	r3,zero,21510 <_malloc_r+0x3a0>
   21818:	0029883a 	mov	r20,zero
   2181c:	003f3e06 	br	21518 <_malloc_r+0x3a8>
   21820:	19001568 	cmpgeui	r4,r3,85
   21824:	2000201e 	bne	r4,zero,218a8 <_malloc_r+0x738>
   21828:	1006d33a 	srli	r3,r2,12
   2182c:	19401bc4 	addi	r5,r3,111
   21830:	280a90fa 	slli	r5,r5,3
   21834:	19001b84 	addi	r4,r3,110
   21838:	003f7006 	br	215fc <_malloc_r+0x48c>
   2183c:	10c05568 	cmpgeui	r3,r2,341
   21840:	1800201e 	bne	r3,zero,218c4 <_malloc_r+0x754>
   21844:	8804d3fa 	srli	r2,r17,15
   21848:	11c01e04 	addi	r7,r2,120
   2184c:	380890fa 	slli	r4,r7,3
   21850:	12001dc4 	addi	r8,r2,119
   21854:	003e7f06 	br	21254 <_malloc_r+0xe4>
   21858:	00800134 	movhi	r2,4
   2185c:	10f4c017 	ldw	r3,-11520(r2)
   21860:	a8c7883a 	add	r3,r21,r3
   21864:	10f4c015 	stw	r3,-11520(r2)
   21868:	003f1306 	br	214b8 <_malloc_r+0x348>
   2186c:	e083ffcc 	andi	r2,fp,4095
   21870:	103f111e 	bne	r2,zero,214b8 <_malloc_r+0x348>
   21874:	9c000217 	ldw	r16,8(r19)
   21878:	b56b883a 	add	r21,r22,r21
   2187c:	ad400054 	ori	r21,r21,1
   21880:	85400115 	stw	r21,4(r16)
   21884:	003f3e06 	br	21580 <_malloc_r+0x410>
   21888:	00800134 	movhi	r2,4
   2188c:	15edad15 	stw	r23,-18764(r2)
   21890:	003f1106 	br	214d8 <_malloc_r+0x368>
   21894:	b821883a 	mov	r16,r23
   21898:	003f3906 	br	21580 <_malloc_r+0x410>
   2189c:	00800044 	movi	r2,1
   218a0:	b8800115 	stw	r2,4(r23)
   218a4:	003fae06 	br	21760 <_malloc_r+0x5f0>
   218a8:	19005568 	cmpgeui	r4,r3,341
   218ac:	2000191e 	bne	r4,zero,21914 <_malloc_r+0x7a4>
   218b0:	1006d3fa 	srli	r3,r2,15
   218b4:	19401e04 	addi	r5,r3,120
   218b8:	280a90fa 	slli	r5,r5,3
   218bc:	19001dc4 	addi	r4,r3,119
   218c0:	003f4e06 	br	215fc <_malloc_r+0x48c>
   218c4:	10815568 	cmpgeui	r2,r2,1365
   218c8:	1000191e 	bne	r2,zero,21930 <_malloc_r+0x7c0>
   218cc:	8804d4ba 	srli	r2,r17,18
   218d0:	11c01f44 	addi	r7,r2,125
   218d4:	380890fa 	slli	r4,r7,3
   218d8:	12001f04 	addi	r8,r2,124
   218dc:	003e5d06 	br	21254 <_malloc_r+0xe4>
   218e0:	e73ffe04 	addi	fp,fp,-8
   218e4:	af2b883a 	add	r21,r21,fp
   218e8:	adebc83a 	sub	r21,r21,r23
   218ec:	0029883a 	mov	r20,zero
   218f0:	003f0906 	br	21518 <_malloc_r+0x3a8>
   218f4:	81400204 	addi	r5,r16,8
   218f8:	9009883a 	mov	r4,r18
   218fc:	0027d0c0 	call	27d0c <_free_r>
   21900:	9c000217 	ldw	r16,8(r19)
   21904:	00800134 	movhi	r2,4
   21908:	1534c017 	ldw	r20,-11520(r2)
   2190c:	85400117 	ldw	r21,4(r16)
   21910:	003f1b06 	br	21580 <_malloc_r+0x410>
   21914:	18c15568 	cmpgeui	r3,r3,1365
   21918:	1800091e 	bne	r3,zero,21940 <_malloc_r+0x7d0>
   2191c:	1006d4ba 	srli	r3,r2,18
   21920:	19401f44 	addi	r5,r3,125
   21924:	280a90fa 	slli	r5,r5,3
   21928:	19001f04 	addi	r4,r3,124
   2192c:	003f3306 	br	215fc <_malloc_r+0x48c>
   21930:	0100fe04 	movi	r4,1016
   21934:	01c01fc4 	movi	r7,127
   21938:	02001f84 	movi	r8,126
   2193c:	003e4506 	br	21254 <_malloc_r+0xe4>
   21940:	0140fe04 	movi	r5,1016
   21944:	01001f84 	movi	r4,126
   21948:	003f2c06 	br	215fc <_malloc_r+0x48c>
   2194c:	98800117 	ldw	r2,4(r19)
   21950:	003f9506 	br	217a8 <_malloc_r+0x638>

00021954 <memcpy>:
   21954:	30c00430 	cmpltui	r3,r6,16
   21958:	2005883a 	mov	r2,r4
   2195c:	18002d1e 	bne	r3,zero,21a14 <memcpy+0xc0>
   21960:	2146b03a 	or	r3,r4,r5
   21964:	18c000cc 	andi	r3,r3,3
   21968:	1800351e 	bne	r3,zero,21a40 <memcpy+0xec>
   2196c:	32fffc04 	addi	r11,r6,-16
   21970:	5816d13a 	srli	r11,r11,4
   21974:	280f883a 	mov	r7,r5
   21978:	2007883a 	mov	r3,r4
   2197c:	5ac00044 	addi	r11,r11,1
   21980:	5816913a 	slli	r11,r11,4
   21984:	22d5883a 	add	r10,r4,r11
   21988:	39000117 	ldw	r4,4(r7)
   2198c:	3a400017 	ldw	r9,0(r7)
   21990:	3a000217 	ldw	r8,8(r7)
   21994:	19000115 	stw	r4,4(r3)
   21998:	39000317 	ldw	r4,12(r7)
   2199c:	1a400015 	stw	r9,0(r3)
   219a0:	1a000215 	stw	r8,8(r3)
   219a4:	19000315 	stw	r4,12(r3)
   219a8:	18c00404 	addi	r3,r3,16
   219ac:	39c00404 	addi	r7,r7,16
   219b0:	50fff51e 	bne	r10,r3,21988 <memcpy+0x34>
   219b4:	3100030c 	andi	r4,r6,12
   219b8:	2acb883a 	add	r5,r5,r11
   219bc:	320003cc 	andi	r8,r6,15
   219c0:	20002226 	beq	r4,zero,21a4c <memcpy+0xf8>
   219c4:	280f883a 	mov	r7,r5
   219c8:	1813883a 	mov	r9,r3
   219cc:	39c00104 	addi	r7,r7,4
   219d0:	3abfff17 	ldw	r10,-4(r7)
   219d4:	41c9c83a 	sub	r4,r8,r7
   219d8:	2909883a 	add	r4,r5,r4
   219dc:	4a800015 	stw	r10,0(r9)
   219e0:	21000128 	cmpgeui	r4,r4,4
   219e4:	4a400104 	addi	r9,r9,4
   219e8:	203ff81e 	bne	r4,zero,219cc <memcpy+0x78>
   219ec:	413fff04 	addi	r4,r8,-4
   219f0:	2008d0ba 	srli	r4,r4,2
   219f4:	318000cc 	andi	r6,r6,3
   219f8:	31ffffc4 	addi	r7,r6,-1
   219fc:	21000044 	addi	r4,r4,1
   21a00:	200890ba 	slli	r4,r4,2
   21a04:	1907883a 	add	r3,r3,r4
   21a08:	290b883a 	add	r5,r5,r4
   21a0c:	3000041e 	bne	r6,zero,21a20 <memcpy+0xcc>
   21a10:	f800283a 	ret
   21a14:	2007883a 	mov	r3,r4
   21a18:	31ffffc4 	addi	r7,r6,-1
   21a1c:	303ffc26 	beq	r6,zero,21a10 <memcpy+0xbc>
   21a20:	39c00044 	addi	r7,r7,1
   21a24:	19cf883a 	add	r7,r3,r7
   21a28:	29800003 	ldbu	r6,0(r5)
   21a2c:	18c00044 	addi	r3,r3,1
   21a30:	29400044 	addi	r5,r5,1
   21a34:	19bfffc5 	stb	r6,-1(r3)
   21a38:	38fffb1e 	bne	r7,r3,21a28 <memcpy+0xd4>
   21a3c:	f800283a 	ret
   21a40:	31ffffc4 	addi	r7,r6,-1
   21a44:	2007883a 	mov	r3,r4
   21a48:	003ff506 	br	21a20 <memcpy+0xcc>
   21a4c:	400d883a 	mov	r6,r8
   21a50:	003ff106 	br	21a18 <memcpy+0xc4>

00021a54 <memset>:
   21a54:	20c000cc 	andi	r3,r4,3
   21a58:	2005883a 	mov	r2,r4
   21a5c:	18003726 	beq	r3,zero,21b3c <memset+0xe8>
   21a60:	31ffffc4 	addi	r7,r6,-1
   21a64:	30003326 	beq	r6,zero,21b34 <memset+0xe0>
   21a68:	2811883a 	mov	r8,r5
   21a6c:	2007883a 	mov	r3,r4
   21a70:	00000306 	br	21a80 <memset+0x2c>
   21a74:	39ffffc4 	addi	r7,r7,-1
   21a78:	39bfffe0 	cmpeqi	r6,r7,-1
   21a7c:	30002d1e 	bne	r6,zero,21b34 <memset+0xe0>
   21a80:	18c00044 	addi	r3,r3,1
   21a84:	198000cc 	andi	r6,r3,3
   21a88:	1a3fffc5 	stb	r8,-1(r3)
   21a8c:	303ff91e 	bne	r6,zero,21a74 <memset+0x20>
   21a90:	39000128 	cmpgeui	r4,r7,4
   21a94:	20002226 	beq	r4,zero,21b20 <memset+0xcc>
   21a98:	29803fcc 	andi	r6,r5,255
   21a9c:	3008923a 	slli	r4,r6,8
   21aa0:	3a000430 	cmpltui	r8,r7,16
   21aa4:	2188b03a 	or	r4,r4,r6
   21aa8:	200c943a 	slli	r6,r4,16
   21aac:	310cb03a 	or	r6,r6,r4
   21ab0:	40000e1e 	bne	r8,zero,21aec <memset+0x98>
   21ab4:	393ffc04 	addi	r4,r7,-16
   21ab8:	2008d13a 	srli	r4,r4,4
   21abc:	21000044 	addi	r4,r4,1
   21ac0:	2008913a 	slli	r4,r4,4
   21ac4:	1909883a 	add	r4,r3,r4
   21ac8:	19800015 	stw	r6,0(r3)
   21acc:	19800115 	stw	r6,4(r3)
   21ad0:	19800215 	stw	r6,8(r3)
   21ad4:	19800315 	stw	r6,12(r3)
   21ad8:	18c00404 	addi	r3,r3,16
   21adc:	20fffa1e 	bne	r4,r3,21ac8 <memset+0x74>
   21ae0:	3900030c 	andi	r4,r7,12
   21ae4:	39c003cc 	andi	r7,r7,15
   21ae8:	20000d26 	beq	r4,zero,21b20 <memset+0xcc>
   21aec:	1811883a 	mov	r8,r3
   21af0:	42000104 	addi	r8,r8,4
   21af4:	3a09c83a 	sub	r4,r7,r8
   21af8:	1909883a 	add	r4,r3,r4
   21afc:	21000128 	cmpgeui	r4,r4,4
   21b00:	41bfff15 	stw	r6,-4(r8)
   21b04:	203ffa1e 	bne	r4,zero,21af0 <memset+0x9c>
   21b08:	393fff04 	addi	r4,r7,-4
   21b0c:	2008d0ba 	srli	r4,r4,2
   21b10:	39c000cc 	andi	r7,r7,3
   21b14:	21000044 	addi	r4,r4,1
   21b18:	200890ba 	slli	r4,r4,2
   21b1c:	1907883a 	add	r3,r3,r4
   21b20:	38000526 	beq	r7,zero,21b38 <memset+0xe4>
   21b24:	19cf883a 	add	r7,r3,r7
   21b28:	18c00044 	addi	r3,r3,1
   21b2c:	197fffc5 	stb	r5,-1(r3)
   21b30:	38fffd1e 	bne	r7,r3,21b28 <memset+0xd4>
   21b34:	f800283a 	ret
   21b38:	f800283a 	ret
   21b3c:	2007883a 	mov	r3,r4
   21b40:	300f883a 	mov	r7,r6
   21b44:	003fd206 	br	21a90 <memset+0x3c>

00021b48 <_printf_r>:
   21b48:	defffd04 	addi	sp,sp,-12
   21b4c:	2805883a 	mov	r2,r5
   21b50:	dfc00015 	stw	ra,0(sp)
   21b54:	d9800115 	stw	r6,4(sp)
   21b58:	d9c00215 	stw	r7,8(sp)
   21b5c:	21400217 	ldw	r5,8(r4)
   21b60:	d9c00104 	addi	r7,sp,4
   21b64:	100d883a 	mov	r6,r2
   21b68:	0021f280 	call	21f28 <___vfprintf_internal_r>
   21b6c:	dfc00017 	ldw	ra,0(sp)
   21b70:	dec00304 	addi	sp,sp,12
   21b74:	f800283a 	ret

00021b78 <printf>:
   21b78:	defffc04 	addi	sp,sp,-16
   21b7c:	dfc00015 	stw	ra,0(sp)
   21b80:	d9400115 	stw	r5,4(sp)
   21b84:	d9800215 	stw	r6,8(sp)
   21b88:	d9c00315 	stw	r7,12(sp)
   21b8c:	00800134 	movhi	r2,4
   21b90:	10adac17 	ldw	r2,-18768(r2)
   21b94:	200b883a 	mov	r5,r4
   21b98:	d9800104 	addi	r6,sp,4
   21b9c:	11000217 	ldw	r4,8(r2)
   21ba0:	0023f480 	call	23f48 <__vfprintf_internal>
   21ba4:	dfc00017 	ldw	ra,0(sp)
   21ba8:	dec00404 	addi	sp,sp,16
   21bac:	f800283a 	ret

00021bb0 <_puts_r>:
   21bb0:	defff504 	addi	sp,sp,-44
   21bb4:	dc000815 	stw	r16,32(sp)
   21bb8:	2021883a 	mov	r16,r4
   21bbc:	2809883a 	mov	r4,r5
   21bc0:	dc400915 	stw	r17,36(sp)
   21bc4:	dfc00a15 	stw	ra,40(sp)
   21bc8:	2823883a 	mov	r17,r5
   21bcc:	0021e900 	call	21e90 <strlen>
   21bd0:	11000044 	addi	r4,r2,1
   21bd4:	d8800515 	stw	r2,20(sp)
   21bd8:	00800044 	movi	r2,1
   21bdc:	00c00134 	movhi	r3,4
   21be0:	d8800715 	stw	r2,28(sp)
   21be4:	d8800404 	addi	r2,sp,16
   21be8:	18e4a704 	addi	r3,r3,-28004
   21bec:	d8800115 	stw	r2,4(sp)
   21bf0:	00800084 	movi	r2,2
   21bf4:	dc400415 	stw	r17,16(sp)
   21bf8:	d8c00615 	stw	r3,24(sp)
   21bfc:	d9000315 	stw	r4,12(sp)
   21c00:	d8800215 	stw	r2,8(sp)
   21c04:	81400217 	ldw	r5,8(r16)
   21c08:	80000226 	beq	r16,zero,21c14 <_puts_r+0x64>
   21c0c:	80800e17 	ldw	r2,56(r16)
   21c10:	10001326 	beq	r2,zero,21c60 <_puts_r+0xb0>
   21c14:	2880030b 	ldhu	r2,12(r5)
   21c18:	10c8000c 	andi	r3,r2,8192
   21c1c:	1800061e 	bne	r3,zero,21c38 <_puts_r+0x88>
   21c20:	28c01917 	ldw	r3,100(r5)
   21c24:	0137ffc4 	movi	r4,-8193
   21c28:	10880014 	ori	r2,r2,8192
   21c2c:	1906703a 	and	r3,r3,r4
   21c30:	2880030d 	sth	r2,12(r5)
   21c34:	28c01915 	stw	r3,100(r5)
   21c38:	d9800104 	addi	r6,sp,4
   21c3c:	8009883a 	mov	r4,r16
   21c40:	00280080 	call	28008 <__sfvwrite_r>
   21c44:	10000b1e 	bne	r2,zero,21c74 <_puts_r+0xc4>
   21c48:	00800284 	movi	r2,10
   21c4c:	dfc00a17 	ldw	ra,40(sp)
   21c50:	dc400917 	ldw	r17,36(sp)
   21c54:	dc000817 	ldw	r16,32(sp)
   21c58:	dec00b04 	addi	sp,sp,44
   21c5c:	f800283a 	ret
   21c60:	8009883a 	mov	r4,r16
   21c64:	d9400015 	stw	r5,0(sp)
   21c68:	0020fe80 	call	20fe8 <__sinit>
   21c6c:	d9400017 	ldw	r5,0(sp)
   21c70:	003fe806 	br	21c14 <_puts_r+0x64>
   21c74:	00bfffc4 	movi	r2,-1
   21c78:	003ff406 	br	21c4c <_puts_r+0x9c>

00021c7c <puts>:
   21c7c:	00800134 	movhi	r2,4
   21c80:	200b883a 	mov	r5,r4
   21c84:	112dac17 	ldw	r4,-18768(r2)
   21c88:	0021bb01 	jmpi	21bb0 <_puts_r>

00021c8c <_sbrk_r>:
   21c8c:	defffe04 	addi	sp,sp,-8
   21c90:	dc000015 	stw	r16,0(sp)
   21c94:	00800134 	movhi	r2,4
   21c98:	2021883a 	mov	r16,r4
   21c9c:	2809883a 	mov	r4,r5
   21ca0:	dfc00115 	stw	ra,4(sp)
   21ca4:	1034b615 	stw	zero,-11560(r2)
   21ca8:	00375200 	call	37520 <sbrk>
   21cac:	10ffffd8 	cmpnei	r3,r2,-1
   21cb0:	18000426 	beq	r3,zero,21cc4 <_sbrk_r+0x38>
   21cb4:	dfc00117 	ldw	ra,4(sp)
   21cb8:	dc000017 	ldw	r16,0(sp)
   21cbc:	dec00204 	addi	sp,sp,8
   21cc0:	f800283a 	ret
   21cc4:	00c00134 	movhi	r3,4
   21cc8:	18f4b617 	ldw	r3,-11560(r3)
   21ccc:	183ff926 	beq	r3,zero,21cb4 <_sbrk_r+0x28>
   21cd0:	80c00015 	stw	r3,0(r16)
   21cd4:	dfc00117 	ldw	ra,4(sp)
   21cd8:	dc000017 	ldw	r16,0(sp)
   21cdc:	dec00204 	addi	sp,sp,8
   21ce0:	f800283a 	ret

00021ce4 <scanf>:
   21ce4:	defffc04 	addi	sp,sp,-16
   21ce8:	2005883a 	mov	r2,r4
   21cec:	dfc00015 	stw	ra,0(sp)
   21cf0:	d9400115 	stw	r5,4(sp)
   21cf4:	d9800215 	stw	r6,8(sp)
   21cf8:	d9c00315 	stw	r7,12(sp)
   21cfc:	00c00134 	movhi	r3,4
   21d00:	192dac17 	ldw	r4,-18768(r3)
   21d04:	d9c00104 	addi	r7,sp,4
   21d08:	100d883a 	mov	r6,r2
   21d0c:	21400117 	ldw	r5,4(r4)
   21d10:	00259680 	call	25968 <_vfscanf_r>
   21d14:	dfc00017 	ldw	ra,0(sp)
   21d18:	dec00404 	addi	sp,sp,16
   21d1c:	f800283a 	ret

00021d20 <_scanf_r>:
   21d20:	defffd04 	addi	sp,sp,-12
   21d24:	2805883a 	mov	r2,r5
   21d28:	dfc00015 	stw	ra,0(sp)
   21d2c:	d9800115 	stw	r6,4(sp)
   21d30:	d9c00215 	stw	r7,8(sp)
   21d34:	21400117 	ldw	r5,4(r4)
   21d38:	d9c00104 	addi	r7,sp,4
   21d3c:	100d883a 	mov	r6,r2
   21d40:	00259680 	call	25968 <_vfscanf_r>
   21d44:	dfc00017 	ldw	ra,0(sp)
   21d48:	dec00304 	addi	sp,sp,12
   21d4c:	f800283a 	ret

00021d50 <__sread>:
   21d50:	defffe04 	addi	sp,sp,-8
   21d54:	dc000015 	stw	r16,0(sp)
   21d58:	2821883a 	mov	r16,r5
   21d5c:	2940038f 	ldh	r5,14(r5)
   21d60:	dfc00115 	stw	ra,4(sp)
   21d64:	0029de40 	call	29de4 <_read_r>
   21d68:	10000716 	blt	r2,zero,21d88 <__sread+0x38>
   21d6c:	80c01417 	ldw	r3,80(r16)
   21d70:	1887883a 	add	r3,r3,r2
   21d74:	80c01415 	stw	r3,80(r16)
   21d78:	dfc00117 	ldw	ra,4(sp)
   21d7c:	dc000017 	ldw	r16,0(sp)
   21d80:	dec00204 	addi	sp,sp,8
   21d84:	f800283a 	ret
   21d88:	80c0030b 	ldhu	r3,12(r16)
   21d8c:	18fbffcc 	andi	r3,r3,61439
   21d90:	80c0030d 	sth	r3,12(r16)
   21d94:	dfc00117 	ldw	ra,4(sp)
   21d98:	dc000017 	ldw	r16,0(sp)
   21d9c:	dec00204 	addi	sp,sp,8
   21da0:	f800283a 	ret

00021da4 <__seofread>:
   21da4:	0005883a 	mov	r2,zero
   21da8:	f800283a 	ret

00021dac <__swrite>:
   21dac:	2880030b 	ldhu	r2,12(r5)
   21db0:	defffb04 	addi	sp,sp,-20
   21db4:	dcc00315 	stw	r19,12(sp)
   21db8:	dc800215 	stw	r18,8(sp)
   21dbc:	dc400115 	stw	r17,4(sp)
   21dc0:	dc000015 	stw	r16,0(sp)
   21dc4:	dfc00415 	stw	ra,16(sp)
   21dc8:	10c0400c 	andi	r3,r2,256
   21dcc:	2821883a 	mov	r16,r5
   21dd0:	2023883a 	mov	r17,r4
   21dd4:	3025883a 	mov	r18,r6
   21dd8:	3827883a 	mov	r19,r7
   21ddc:	18000d1e 	bne	r3,zero,21e14 <__swrite+0x68>
   21de0:	8140038f 	ldh	r5,14(r16)
   21de4:	10bbffcc 	andi	r2,r2,61439
   21de8:	980f883a 	mov	r7,r19
   21dec:	900d883a 	mov	r6,r18
   21df0:	8809883a 	mov	r4,r17
   21df4:	8080030d 	sth	r2,12(r16)
   21df8:	dfc00417 	ldw	ra,16(sp)
   21dfc:	dcc00317 	ldw	r19,12(sp)
   21e00:	dc800217 	ldw	r18,8(sp)
   21e04:	dc400117 	ldw	r17,4(sp)
   21e08:	dc000017 	ldw	r16,0(sp)
   21e0c:	dec00504 	addi	sp,sp,20
   21e10:	00259b81 	jmpi	259b8 <_write_r>
   21e14:	2940038f 	ldh	r5,14(r5)
   21e18:	01c00084 	movi	r7,2
   21e1c:	000d883a 	mov	r6,zero
   21e20:	00286140 	call	28614 <_lseek_r>
   21e24:	8080030b 	ldhu	r2,12(r16)
   21e28:	003fed06 	br	21de0 <__swrite+0x34>

00021e2c <__sseek>:
   21e2c:	defffe04 	addi	sp,sp,-8
   21e30:	dc000015 	stw	r16,0(sp)
   21e34:	2821883a 	mov	r16,r5
   21e38:	2940038f 	ldh	r5,14(r5)
   21e3c:	dfc00115 	stw	ra,4(sp)
   21e40:	00286140 	call	28614 <_lseek_r>
   21e44:	10ffffd8 	cmpnei	r3,r2,-1
   21e48:	18000826 	beq	r3,zero,21e6c <__sseek+0x40>
   21e4c:	80c0030b 	ldhu	r3,12(r16)
   21e50:	80801415 	stw	r2,80(r16)
   21e54:	18c40014 	ori	r3,r3,4096
   21e58:	80c0030d 	sth	r3,12(r16)
   21e5c:	dfc00117 	ldw	ra,4(sp)
   21e60:	dc000017 	ldw	r16,0(sp)
   21e64:	dec00204 	addi	sp,sp,8
   21e68:	f800283a 	ret
   21e6c:	80c0030b 	ldhu	r3,12(r16)
   21e70:	18fbffcc 	andi	r3,r3,61439
   21e74:	80c0030d 	sth	r3,12(r16)
   21e78:	dfc00117 	ldw	ra,4(sp)
   21e7c:	dc000017 	ldw	r16,0(sp)
   21e80:	dec00204 	addi	sp,sp,8
   21e84:	f800283a 	ret

00021e88 <__sclose>:
   21e88:	2940038f 	ldh	r5,14(r5)
   21e8c:	0025b801 	jmpi	25b80 <_close_r>

00021e90 <strlen>:
   21e90:	208000cc 	andi	r2,r4,3
   21e94:	10000926 	beq	r2,zero,21ebc <strlen+0x2c>
   21e98:	2005883a 	mov	r2,r4
   21e9c:	00000306 	br	21eac <strlen+0x1c>
   21ea0:	10800044 	addi	r2,r2,1
   21ea4:	10c000cc 	andi	r3,r2,3
   21ea8:	18000526 	beq	r3,zero,21ec0 <strlen+0x30>
   21eac:	10c00007 	ldb	r3,0(r2)
   21eb0:	183ffb1e 	bne	r3,zero,21ea0 <strlen+0x10>
   21eb4:	1105c83a 	sub	r2,r2,r4
   21eb8:	f800283a 	ret
   21ebc:	2005883a 	mov	r2,r4
   21ec0:	11400017 	ldw	r5,0(r2)
   21ec4:	01ffbff4 	movhi	r7,65279
   21ec8:	39ffbfc4 	addi	r7,r7,-257
   21ecc:	29c7883a 	add	r3,r5,r7
   21ed0:	01a02074 	movhi	r6,32897
   21ed4:	014a303a 	nor	r5,zero,r5
   21ed8:	1946703a 	and	r3,r3,r5
   21edc:	31a02004 	addi	r6,r6,-32640
   21ee0:	1986703a 	and	r3,r3,r6
   21ee4:	1800071e 	bne	r3,zero,21f04 <strlen+0x74>
   21ee8:	11400117 	ldw	r5,4(r2)
   21eec:	10800104 	addi	r2,r2,4
   21ef0:	29c7883a 	add	r3,r5,r7
   21ef4:	014a303a 	nor	r5,zero,r5
   21ef8:	1946703a 	and	r3,r3,r5
   21efc:	1986703a 	and	r3,r3,r6
   21f00:	183ff926 	beq	r3,zero,21ee8 <strlen+0x58>
   21f04:	10c00007 	ldb	r3,0(r2)
   21f08:	183fea26 	beq	r3,zero,21eb4 <strlen+0x24>
   21f0c:	10c00047 	ldb	r3,1(r2)
   21f10:	10800044 	addi	r2,r2,1
   21f14:	183fe726 	beq	r3,zero,21eb4 <strlen+0x24>
   21f18:	10c00047 	ldb	r3,1(r2)
   21f1c:	10800044 	addi	r2,r2,1
   21f20:	183ffa1e 	bne	r3,zero,21f0c <strlen+0x7c>
   21f24:	003fe306 	br	21eb4 <strlen+0x24>

00021f28 <___vfprintf_internal_r>:
   21f28:	deffbf04 	addi	sp,sp,-260
   21f2c:	dfc04015 	stw	ra,256(sp)
   21f30:	dd803d15 	stw	r22,244(sp)
   21f34:	dcc03a15 	stw	r19,232(sp)
   21f38:	dc803915 	stw	r18,228(sp)
   21f3c:	2027883a 	mov	r19,r4
   21f40:	2825883a 	mov	r18,r5
   21f44:	302d883a 	mov	r22,r6
   21f48:	d9c00615 	stw	r7,24(sp)
   21f4c:	df003f15 	stw	fp,252(sp)
   21f50:	ddc03e15 	stw	r23,248(sp)
   21f54:	dd403c15 	stw	r21,240(sp)
   21f58:	dd003b15 	stw	r20,236(sp)
   21f5c:	dc403815 	stw	r17,224(sp)
   21f60:	dc003715 	stw	r16,220(sp)
   21f64:	00285fc0 	call	285fc <_localeconv_r>
   21f68:	10800017 	ldw	r2,0(r2)
   21f6c:	1009883a 	mov	r4,r2
   21f70:	d8800d15 	stw	r2,52(sp)
   21f74:	0021e900 	call	21e90 <strlen>
   21f78:	d8800b15 	stw	r2,44(sp)
   21f7c:	98000226 	beq	r19,zero,21f88 <___vfprintf_internal_r+0x60>
   21f80:	98800e17 	ldw	r2,56(r19)
   21f84:	1001e026 	beq	r2,zero,22708 <___vfprintf_internal_r+0x7e0>
   21f88:	9080030b 	ldhu	r2,12(r18)
   21f8c:	10c8000c 	andi	r3,r2,8192
   21f90:	1800061e 	bne	r3,zero,21fac <___vfprintf_internal_r+0x84>
   21f94:	90c01917 	ldw	r3,100(r18)
   21f98:	0137ffc4 	movi	r4,-8193
   21f9c:	10880014 	ori	r2,r2,8192
   21fa0:	1906703a 	and	r3,r3,r4
   21fa4:	9080030d 	sth	r2,12(r18)
   21fa8:	90c01915 	stw	r3,100(r18)
   21fac:	10c0020c 	andi	r3,r2,8
   21fb0:	1800fc26 	beq	r3,zero,223a4 <___vfprintf_internal_r+0x47c>
   21fb4:	90c00417 	ldw	r3,16(r18)
   21fb8:	1800fa26 	beq	r3,zero,223a4 <___vfprintf_internal_r+0x47c>
   21fbc:	1080068c 	andi	r2,r2,26
   21fc0:	10800298 	cmpnei	r2,r2,10
   21fc4:	1000ff26 	beq	r2,zero,223c4 <___vfprintf_internal_r+0x49c>
   21fc8:	d8802704 	addi	r2,sp,156
   21fcc:	b02f883a 	mov	r23,r22
   21fd0:	d8801a15 	stw	r2,104(sp)
   21fd4:	d8001c15 	stw	zero,112(sp)
   21fd8:	d8001b15 	stw	zero,108(sp)
   21fdc:	d8000815 	stw	zero,32(sp)
   21fe0:	d8000915 	stw	zero,36(sp)
   21fe4:	d8000a15 	stw	zero,40(sp)
   21fe8:	d8000c15 	stw	zero,48(sp)
   21fec:	d8001015 	stw	zero,64(sp)
   21ff0:	d8000515 	stw	zero,20(sp)
   21ff4:	102d883a 	mov	r22,r2
   21ff8:	b8800007 	ldb	r2,0(r23)
   21ffc:	1000d726 	beq	r2,zero,2235c <___vfprintf_internal_r+0x434>
   22000:	b821883a 	mov	r16,r23
   22004:	00000306 	br	22014 <___vfprintf_internal_r+0xec>
   22008:	80800047 	ldb	r2,1(r16)
   2200c:	84000044 	addi	r16,r16,1
   22010:	10012226 	beq	r2,zero,2249c <___vfprintf_internal_r+0x574>
   22014:	10800958 	cmpnei	r2,r2,37
   22018:	103ffb1e 	bne	r2,zero,22008 <___vfprintf_internal_r+0xe0>
   2201c:	85e3c83a 	sub	r17,r16,r23
   22020:	85c1201e 	bne	r16,r23,224a4 <___vfprintf_internal_r+0x57c>
   22024:	80800003 	ldbu	r2,0(r16)
   22028:	10803fcc 	andi	r2,r2,255
   2202c:	1080201c 	xori	r2,r2,128
   22030:	10bfe004 	addi	r2,r2,-128
   22034:	1000c926 	beq	r2,zero,2235c <___vfprintf_internal_r+0x434>
   22038:	82c00047 	ldb	r11,1(r16)
   2203c:	85c00044 	addi	r23,r16,1
   22040:	d8001345 	stb	zero,77(sp)
   22044:	0009883a 	mov	r4,zero
   22048:	000b883a 	mov	r5,zero
   2204c:	023fffc4 	movi	r8,-1
   22050:	0021883a 	mov	r16,zero
   22054:	0019883a 	mov	r12,zero
   22058:	bdc00044 	addi	r23,r23,1
   2205c:	5839883a 	mov	fp,r11
   22060:	e0bff804 	addi	r2,fp,-32
   22064:	10c01668 	cmpgeui	r3,r2,89
   22068:	18006c1e 	bne	r3,zero,2221c <___vfprintf_internal_r+0x2f4>
   2206c:	100490ba 	slli	r2,r2,2
   22070:	00c000b4 	movhi	r3,2
   22074:	10c7883a 	add	r3,r2,r3
   22078:	18882017 	ldw	r2,8320(r3)
   2207c:	1000683a 	jmp	r2
   22080:	00022930 	cmpltui	zero,zero,2212
   22084:	0002221c 	xori	zero,zero,2184
   22088:	0002221c 	xori	zero,zero,2184
   2208c:	00022924 	muli	zero,zero,2212
   22090:	0002221c 	xori	zero,zero,2184
   22094:	0002221c 	xori	zero,zero,2184
   22098:	0002221c 	xori	zero,zero,2184
   2209c:	0002221c 	xori	zero,zero,2184
   220a0:	0002221c 	xori	zero,zero,2184
   220a4:	0002221c 	xori	zero,zero,2184
   220a8:	000227ac 	andhi	zero,zero,2206
   220ac:	00022914 	movui	zero,2212
   220b0:	0002221c 	xori	zero,zero,2184
   220b4:	000227c4 	movi	zero,2207
   220b8:	000227d0 	cmplti	zero,zero,2207
   220bc:	0002221c 	xori	zero,zero,2184
   220c0:	00022908 	cmpgei	zero,zero,2212
   220c4:	000221e4 	muli	zero,zero,2183
   220c8:	000221e4 	muli	zero,zero,2183
   220cc:	000221e4 	muli	zero,zero,2183
   220d0:	000221e4 	muli	zero,zero,2183
   220d4:	000221e4 	muli	zero,zero,2183
   220d8:	000221e4 	muli	zero,zero,2183
   220dc:	000221e4 	muli	zero,zero,2183
   220e0:	000221e4 	muli	zero,zero,2183
   220e4:	000221e4 	muli	zero,zero,2183
   220e8:	0002221c 	xori	zero,zero,2184
   220ec:	0002221c 	xori	zero,zero,2184
   220f0:	0002221c 	xori	zero,zero,2184
   220f4:	0002221c 	xori	zero,zero,2184
   220f8:	0002221c 	xori	zero,zero,2184
   220fc:	0002221c 	xori	zero,zero,2184
   22100:	0002221c 	xori	zero,zero,2184
   22104:	0002221c 	xori	zero,zero,2184
   22108:	0002221c 	xori	zero,zero,2184
   2210c:	0002221c 	xori	zero,zero,2184
   22110:	0002281c 	xori	zero,zero,2208
   22114:	00022500 	call	2250 <__reset-0x1ddb0>
   22118:	0002221c 	xori	zero,zero,2184
   2211c:	00022500 	call	2250 <__reset-0x1ddb0>
   22120:	0002221c 	xori	zero,zero,2184
   22124:	0002221c 	xori	zero,zero,2184
   22128:	0002221c 	xori	zero,zero,2184
   2212c:	0002221c 	xori	zero,zero,2184
   22130:	00022ab0 	cmpltui	zero,zero,2218
   22134:	0002221c 	xori	zero,zero,2184
   22138:	0002221c 	xori	zero,zero,2184
   2213c:	00022434 	movhi	zero,2192
   22140:	0002221c 	xori	zero,zero,2184
   22144:	0002221c 	xori	zero,zero,2184
   22148:	0002221c 	xori	zero,zero,2184
   2214c:	0002221c 	xori	zero,zero,2184
   22150:	0002221c 	xori	zero,zero,2184
   22154:	0002240c 	andi	zero,zero,2192
   22158:	0002221c 	xori	zero,zero,2184
   2215c:	0002221c 	xori	zero,zero,2184
   22160:	00022af0 	cmpltui	zero,zero,2219
   22164:	0002221c 	xori	zero,zero,2184
   22168:	0002221c 	xori	zero,zero,2184
   2216c:	0002221c 	xori	zero,zero,2184
   22170:	0002221c 	xori	zero,zero,2184
   22174:	0002221c 	xori	zero,zero,2184
   22178:	0002221c 	xori	zero,zero,2184
   2217c:	0002221c 	xori	zero,zero,2184
   22180:	0002221c 	xori	zero,zero,2184
   22184:	0002221c 	xori	zero,zero,2184
   22188:	0002221c 	xori	zero,zero,2184
   2218c:	00022ac8 	cmpgei	zero,zero,2219
   22190:	00022714 	movui	zero,2204
   22194:	00022500 	call	2250 <__reset-0x1ddb0>
   22198:	00022500 	call	2250 <__reset-0x1ddb0>
   2219c:	00022500 	call	2250 <__reset-0x1ddb0>
   221a0:	00022abc 	xorhi	zero,zero,2218
   221a4:	00022714 	movui	zero,2204
   221a8:	0002221c 	xori	zero,zero,2184
   221ac:	0002221c 	xori	zero,zero,2184
   221b0:	0002295c 	xori	zero,zero,2213
   221b4:	0002221c 	xori	zero,zero,2184
   221b8:	00022a70 	cmpltui	zero,zero,2217
   221bc:	00022438 	rdprs	zero,zero,2192
   221c0:	00022a30 	cmpltui	zero,zero,2216
   221c4:	00022a24 	muli	zero,zero,2216
   221c8:	0002221c 	xori	zero,zero,2184
   221cc:	000229cc 	andi	zero,zero,2215
   221d0:	0002221c 	xori	zero,zero,2184
   221d4:	00022410 	cmplti	zero,zero,2192
   221d8:	0002221c 	xori	zero,zero,2184
   221dc:	0002221c 	xori	zero,zero,2184
   221e0:	00022984 	movi	zero,2214
   221e4:	0021883a 	mov	r16,zero
   221e8:	e0fff404 	addi	r3,fp,-48
   221ec:	800490ba 	slli	r2,r16,2
   221f0:	bf000007 	ldb	fp,0(r23)
   221f4:	bdc00044 	addi	r23,r23,1
   221f8:	1421883a 	add	r16,r2,r16
   221fc:	8421883a 	add	r16,r16,r16
   22200:	1c21883a 	add	r16,r3,r16
   22204:	e0fff404 	addi	r3,fp,-48
   22208:	188002b0 	cmpltui	r2,r3,10
   2220c:	103ff71e 	bne	r2,zero,221ec <___vfprintf_internal_r+0x2c4>
   22210:	e0bff804 	addi	r2,fp,-32
   22214:	10c01668 	cmpgeui	r3,r2,89
   22218:	183f9426 	beq	r3,zero,2206c <___vfprintf_internal_r+0x144>
   2221c:	21003fcc 	andi	r4,r4,255
   22220:	2006561e 	bne	r4,zero,23b7c <___vfprintf_internal_r+0x1c54>
   22224:	e0004d26 	beq	fp,zero,2235c <___vfprintf_internal_r+0x434>
   22228:	df001d05 	stb	fp,116(sp)
   2222c:	d8001345 	stb	zero,77(sp)
   22230:	05000044 	movi	r20,1
   22234:	05400044 	movi	r21,1
   22238:	dc401d04 	addi	r17,sp,116
   2223c:	db000415 	stw	r12,16(sp)
   22240:	0011883a 	mov	r8,zero
   22244:	d8000715 	stw	zero,28(sp)
   22248:	d8800417 	ldw	r2,16(sp)
   2224c:	1380008c 	andi	r14,r2,2
   22250:	70000126 	beq	r14,zero,22258 <___vfprintf_internal_r+0x330>
   22254:	a5000084 	addi	r20,r20,2
   22258:	d8800417 	ldw	r2,16(sp)
   2225c:	d8c01c17 	ldw	r3,112(sp)
   22260:	1340210c 	andi	r13,r2,132
   22264:	6800021e 	bne	r13,zero,22270 <___vfprintf_internal_r+0x348>
   22268:	850fc83a 	sub	r7,r16,r20
   2226c:	01c36a16 	blt	zero,r7,23018 <___vfprintf_internal_r+0x10f0>
   22270:	d8801347 	ldb	r2,77(sp)
   22274:	10000c26 	beq	r2,zero,222a8 <___vfprintf_internal_r+0x380>
   22278:	d8801b17 	ldw	r2,108(sp)
   2227c:	d9001344 	addi	r4,sp,77
   22280:	18c00044 	addi	r3,r3,1
   22284:	10800044 	addi	r2,r2,1
   22288:	b1000015 	stw	r4,0(r22)
   2228c:	01000044 	movi	r4,1
   22290:	d8801b15 	stw	r2,108(sp)
   22294:	b1000115 	stw	r4,4(r22)
   22298:	d8c01c15 	stw	r3,112(sp)
   2229c:	10800208 	cmpgei	r2,r2,8
   222a0:	10039e1e 	bne	r2,zero,2311c <___vfprintf_internal_r+0x11f4>
   222a4:	b5800204 	addi	r22,r22,8
   222a8:	70000c26 	beq	r14,zero,222dc <___vfprintf_internal_r+0x3b4>
   222ac:	d8801b17 	ldw	r2,108(sp)
   222b0:	d9001384 	addi	r4,sp,78
   222b4:	18c00084 	addi	r3,r3,2
   222b8:	10800044 	addi	r2,r2,1
   222bc:	b1000015 	stw	r4,0(r22)
   222c0:	01000084 	movi	r4,2
   222c4:	d8801b15 	stw	r2,108(sp)
   222c8:	b1000115 	stw	r4,4(r22)
   222cc:	d8c01c15 	stw	r3,112(sp)
   222d0:	10800208 	cmpgei	r2,r2,8
   222d4:	10039f1e 	bne	r2,zero,23154 <___vfprintf_internal_r+0x122c>
   222d8:	b5800204 	addi	r22,r22,8
   222dc:	6b402018 	cmpnei	r13,r13,128
   222e0:	68025b26 	beq	r13,zero,22c50 <___vfprintf_internal_r+0xd28>
   222e4:	4551c83a 	sub	r8,r8,r21
   222e8:	02029316 	blt	zero,r8,22d38 <___vfprintf_internal_r+0xe10>
   222ec:	d8800417 	ldw	r2,16(sp)
   222f0:	1080400c 	andi	r2,r2,256
   222f4:	1002101e 	bne	r2,zero,22b38 <___vfprintf_internal_r+0xc10>
   222f8:	d8801b17 	ldw	r2,108(sp)
   222fc:	1d47883a 	add	r3,r3,r21
   22300:	b4400015 	stw	r17,0(r22)
   22304:	10800044 	addi	r2,r2,1
   22308:	b5400115 	stw	r21,4(r22)
   2230c:	d8801b15 	stw	r2,108(sp)
   22310:	d8c01c15 	stw	r3,112(sp)
   22314:	10800208 	cmpgei	r2,r2,8
   22318:	1002fc1e 	bne	r2,zero,22f0c <___vfprintf_internal_r+0xfe4>
   2231c:	b5800204 	addi	r22,r22,8
   22320:	d8800417 	ldw	r2,16(sp)
   22324:	1440010c 	andi	r17,r2,4
   22328:	88000226 	beq	r17,zero,22334 <___vfprintf_internal_r+0x40c>
   2232c:	8523c83a 	sub	r17,r16,r20
   22330:	0440c616 	blt	zero,r17,2264c <___vfprintf_internal_r+0x724>
   22334:	8500010e 	bge	r16,r20,2233c <___vfprintf_internal_r+0x414>
   22338:	a021883a 	mov	r16,r20
   2233c:	d8800517 	ldw	r2,20(sp)
   22340:	1405883a 	add	r2,r2,r16
   22344:	d8800515 	stw	r2,20(sp)
   22348:	1802c21e 	bne	r3,zero,22e54 <___vfprintf_internal_r+0xf2c>
   2234c:	b8800007 	ldb	r2,0(r23)
   22350:	d8001b15 	stw	zero,108(sp)
   22354:	dd802704 	addi	r22,sp,156
   22358:	103f291e 	bne	r2,zero,22000 <___vfprintf_internal_r+0xd8>
   2235c:	d8801c17 	ldw	r2,112(sp)
   22360:	1006011e 	bne	r2,zero,23b68 <___vfprintf_internal_r+0x1c40>
   22364:	9080030b 	ldhu	r2,12(r18)
   22368:	1080100c 	andi	r2,r2,64
   2236c:	1006991e 	bne	r2,zero,23dd4 <___vfprintf_internal_r+0x1eac>
   22370:	d8800517 	ldw	r2,20(sp)
   22374:	dfc04017 	ldw	ra,256(sp)
   22378:	df003f17 	ldw	fp,252(sp)
   2237c:	ddc03e17 	ldw	r23,248(sp)
   22380:	dd803d17 	ldw	r22,244(sp)
   22384:	dd403c17 	ldw	r21,240(sp)
   22388:	dd003b17 	ldw	r20,236(sp)
   2238c:	dcc03a17 	ldw	r19,232(sp)
   22390:	dc803917 	ldw	r18,228(sp)
   22394:	dc403817 	ldw	r17,224(sp)
   22398:	dc003717 	ldw	r16,220(sp)
   2239c:	dec04104 	addi	sp,sp,260
   223a0:	f800283a 	ret
   223a4:	900b883a 	mov	r5,r18
   223a8:	9809883a 	mov	r4,r19
   223ac:	0025a1c0 	call	25a1c <__swsetup_r>
   223b0:	1006881e 	bne	r2,zero,23dd4 <___vfprintf_internal_r+0x1eac>
   223b4:	9080030b 	ldhu	r2,12(r18)
   223b8:	1080068c 	andi	r2,r2,26
   223bc:	10800298 	cmpnei	r2,r2,10
   223c0:	103f011e 	bne	r2,zero,21fc8 <___vfprintf_internal_r+0xa0>
   223c4:	9080038f 	ldh	r2,14(r18)
   223c8:	103eff16 	blt	r2,zero,21fc8 <___vfprintf_internal_r+0xa0>
   223cc:	d9c00617 	ldw	r7,24(sp)
   223d0:	b00d883a 	mov	r6,r22
   223d4:	900b883a 	mov	r5,r18
   223d8:	9809883a 	mov	r4,r19
   223dc:	dfc04017 	ldw	ra,256(sp)
   223e0:	df003f17 	ldw	fp,252(sp)
   223e4:	ddc03e17 	ldw	r23,248(sp)
   223e8:	dd803d17 	ldw	r22,244(sp)
   223ec:	dd403c17 	ldw	r21,240(sp)
   223f0:	dd003b17 	ldw	r20,236(sp)
   223f4:	dcc03a17 	ldw	r19,232(sp)
   223f8:	dc803917 	ldw	r18,228(sp)
   223fc:	dc403817 	ldw	r17,224(sp)
   22400:	dc003717 	ldw	r16,220(sp)
   22404:	dec04104 	addi	sp,sp,260
   22408:	0023f641 	jmpi	23f64 <__sbprintf>
   2240c:	63000414 	ori	r12,r12,16
   22410:	6080080c 	andi	r2,r12,32
   22414:	10008126 	beq	r2,zero,2261c <___vfprintf_internal_r+0x6f4>
   22418:	d8c00617 	ldw	r3,24(sp)
   2241c:	00800044 	movi	r2,1
   22420:	1d000017 	ldw	r20,0(r3)
   22424:	1d400117 	ldw	r21,4(r3)
   22428:	18c00204 	addi	r3,r3,8
   2242c:	d8c00615 	stw	r3,24(sp)
   22430:	00000906 	br	22458 <___vfprintf_internal_r+0x530>
   22434:	63000414 	ori	r12,r12,16
   22438:	6080080c 	andi	r2,r12,32
   2243c:	10006b26 	beq	r2,zero,225ec <___vfprintf_internal_r+0x6c4>
   22440:	d8c00617 	ldw	r3,24(sp)
   22444:	0005883a 	mov	r2,zero
   22448:	1d000017 	ldw	r20,0(r3)
   2244c:	1d400117 	ldw	r21,4(r3)
   22450:	18c00204 	addi	r3,r3,8
   22454:	d8c00615 	stw	r3,24(sp)
   22458:	001b883a 	mov	r13,zero
   2245c:	db401345 	stb	r13,77(sp)
   22460:	40ffffe0 	cmpeqi	r3,r8,-1
   22464:	1801091e 	bne	r3,zero,2288c <___vfprintf_internal_r+0x964>
   22468:	047fdfc4 	movi	r17,-129
   2246c:	6448703a 	and	r4,r12,r17
   22470:	a546b03a 	or	r3,r20,r21
   22474:	d9000415 	stw	r4,16(sp)
   22478:	1802e51e 	bne	r3,zero,23010 <___vfprintf_internal_r+0x10e8>
   2247c:	40025f1e 	bne	r8,zero,22dfc <___vfprintf_internal_r+0xed4>
   22480:	1003ad1e 	bne	r2,zero,23338 <___vfprintf_internal_r+0x1410>
   22484:	6540004c 	andi	r21,r12,1
   22488:	a803e526 	beq	r21,zero,23420 <___vfprintf_internal_r+0x14f8>
   2248c:	00800c04 	movi	r2,48
   22490:	d88026c5 	stb	r2,155(sp)
   22494:	dc4026c4 	addi	r17,sp,155
   22498:	0000ba06 	br	22784 <___vfprintf_internal_r+0x85c>
   2249c:	85e3c83a 	sub	r17,r16,r23
   224a0:	85ffae26 	beq	r16,r23,2235c <___vfprintf_internal_r+0x434>
   224a4:	d8c01c17 	ldw	r3,112(sp)
   224a8:	d8801b17 	ldw	r2,108(sp)
   224ac:	b5c00015 	stw	r23,0(r22)
   224b0:	1c47883a 	add	r3,r3,r17
   224b4:	10800044 	addi	r2,r2,1
   224b8:	d8801b15 	stw	r2,108(sp)
   224bc:	b4400115 	stw	r17,4(r22)
   224c0:	d8c01c15 	stw	r3,112(sp)
   224c4:	10800208 	cmpgei	r2,r2,8
   224c8:	1000061e 	bne	r2,zero,224e4 <___vfprintf_internal_r+0x5bc>
   224cc:	b5800204 	addi	r22,r22,8
   224d0:	d8c00517 	ldw	r3,20(sp)
   224d4:	80800003 	ldbu	r2,0(r16)
   224d8:	1c47883a 	add	r3,r3,r17
   224dc:	d8c00515 	stw	r3,20(sp)
   224e0:	003ed106 	br	22028 <___vfprintf_internal_r+0x100>
   224e4:	d9801a04 	addi	r6,sp,104
   224e8:	900b883a 	mov	r5,r18
   224ec:	9809883a 	mov	r4,r19
   224f0:	002efb80 	call	2efb8 <__sprint_r>
   224f4:	103f9b1e 	bne	r2,zero,22364 <___vfprintf_internal_r+0x43c>
   224f8:	dd802704 	addi	r22,sp,156
   224fc:	003ff406 	br	224d0 <___vfprintf_internal_r+0x5a8>
   22500:	21003fcc 	andi	r4,r4,255
   22504:	2006221e 	bne	r4,zero,23d90 <___vfprintf_internal_r+0x1e68>
   22508:	d8c00617 	ldw	r3,24(sp)
   2250c:	6080020c 	andi	r2,r12,8
   22510:	19000204 	addi	r4,r3,8
   22514:	d9000e15 	stw	r4,56(sp)
   22518:	1003c31e 	bne	r2,zero,23428 <___vfprintf_internal_r+0x1500>
   2251c:	d8800617 	ldw	r2,24(sp)
   22520:	10c00017 	ldw	r3,0(r2)
   22524:	10800117 	ldw	r2,4(r2)
   22528:	d8c00915 	stw	r3,36(sp)
   2252c:	d8800a15 	stw	r2,40(sp)
   22530:	dd400a17 	ldw	r21,40(sp)
   22534:	dd000917 	ldw	r20,36(sp)
   22538:	00a00034 	movhi	r2,32768
   2253c:	10bfffc4 	addi	r2,r2,-1
   22540:	a8a2703a 	and	r17,r21,r2
   22544:	01dffc34 	movhi	r7,32752
   22548:	01bfffc4 	movi	r6,-1
   2254c:	39ffffc4 	addi	r7,r7,-1
   22550:	a009883a 	mov	r4,r20
   22554:	880b883a 	mov	r5,r17
   22558:	da000615 	stw	r8,24(sp)
   2255c:	db000415 	stw	r12,16(sp)
   22560:	003642c0 	call	3642c <__unorddf2>
   22564:	db000417 	ldw	r12,16(sp)
   22568:	da000617 	ldw	r8,24(sp)
   2256c:	10044d1e 	bne	r2,zero,236a4 <___vfprintf_internal_r+0x177c>
   22570:	01dffc34 	movhi	r7,32752
   22574:	01bfffc4 	movi	r6,-1
   22578:	39ffffc4 	addi	r7,r7,-1
   2257c:	a009883a 	mov	r4,r20
   22580:	880b883a 	mov	r5,r17
   22584:	00352280 	call	35228 <__ledf2>
   22588:	db000417 	ldw	r12,16(sp)
   2258c:	da000617 	ldw	r8,24(sp)
   22590:	0084440e 	bge	zero,r2,236a4 <___vfprintf_internal_r+0x177c>
   22594:	000d883a 	mov	r6,zero
   22598:	000f883a 	mov	r7,zero
   2259c:	a009883a 	mov	r4,r20
   225a0:	a80b883a 	mov	r5,r21
   225a4:	00352280 	call	35228 <__ledf2>
   225a8:	db000417 	ldw	r12,16(sp)
   225ac:	10055b16 	blt	r2,zero,23b1c <___vfprintf_internal_r+0x1bf4>
   225b0:	db401343 	ldbu	r13,77(sp)
   225b4:	e0801210 	cmplti	r2,fp,72
   225b8:	1005491e 	bne	r2,zero,23ae0 <___vfprintf_internal_r+0x1bb8>
   225bc:	04400134 	movhi	r17,4
   225c0:	8c64a904 	addi	r17,r17,-27996
   225c4:	00bfdfc4 	movi	r2,-129
   225c8:	6084703a 	and	r2,r12,r2
   225cc:	d8800415 	stw	r2,16(sp)
   225d0:	d8800e17 	ldw	r2,56(sp)
   225d4:	050000c4 	movi	r20,3
   225d8:	054000c4 	movi	r21,3
   225dc:	d8800615 	stw	r2,24(sp)
   225e0:	0011883a 	mov	r8,zero
   225e4:	d8000715 	stw	zero,28(sp)
   225e8:	00006a06 	br	22794 <___vfprintf_internal_r+0x86c>
   225ec:	d8c00617 	ldw	r3,24(sp)
   225f0:	6080040c 	andi	r2,r12,16
   225f4:	1d000017 	ldw	r20,0(r3)
   225f8:	18c00104 	addi	r3,r3,4
   225fc:	1000031e 	bne	r2,zero,2260c <___vfprintf_internal_r+0x6e4>
   22600:	6080100c 	andi	r2,r12,64
   22604:	10000126 	beq	r2,zero,2260c <___vfprintf_internal_r+0x6e4>
   22608:	a53fffcc 	andi	r20,r20,65535
   2260c:	002b883a 	mov	r21,zero
   22610:	d8c00615 	stw	r3,24(sp)
   22614:	0005883a 	mov	r2,zero
   22618:	003f8f06 	br	22458 <___vfprintf_internal_r+0x530>
   2261c:	d8c00617 	ldw	r3,24(sp)
   22620:	6080040c 	andi	r2,r12,16
   22624:	1d000017 	ldw	r20,0(r3)
   22628:	18c00104 	addi	r3,r3,4
   2262c:	1000031e 	bne	r2,zero,2263c <___vfprintf_internal_r+0x714>
   22630:	6080100c 	andi	r2,r12,64
   22634:	10000126 	beq	r2,zero,2263c <___vfprintf_internal_r+0x714>
   22638:	a53fffcc 	andi	r20,r20,65535
   2263c:	002b883a 	mov	r21,zero
   22640:	d8c00615 	stw	r3,24(sp)
   22644:	00800044 	movi	r2,1
   22648:	003f8306 	br	22458 <___vfprintf_internal_r+0x530>
   2264c:	03000134 	movhi	r12,4
   22650:	89000450 	cmplti	r4,r17,17
   22654:	d8801b17 	ldw	r2,108(sp)
   22658:	6324bd04 	addi	r12,r12,-27916
   2265c:	20001b1e 	bne	r4,zero,226cc <___vfprintf_internal_r+0x7a4>
   22660:	05400404 	movi	r21,16
   22664:	6039883a 	mov	fp,r12
   22668:	00000406 	br	2267c <___vfprintf_internal_r+0x754>
   2266c:	8c7ffc04 	addi	r17,r17,-16
   22670:	89000448 	cmpgei	r4,r17,17
   22674:	b5800204 	addi	r22,r22,8
   22678:	20001326 	beq	r4,zero,226c8 <___vfprintf_internal_r+0x7a0>
   2267c:	10800044 	addi	r2,r2,1
   22680:	18c00404 	addi	r3,r3,16
   22684:	b7000015 	stw	fp,0(r22)
   22688:	b5400115 	stw	r21,4(r22)
   2268c:	d8c01c15 	stw	r3,112(sp)
   22690:	d8801b15 	stw	r2,108(sp)
   22694:	11000208 	cmpgei	r4,r2,8
   22698:	203ff426 	beq	r4,zero,2266c <___vfprintf_internal_r+0x744>
   2269c:	d9801a04 	addi	r6,sp,104
   226a0:	900b883a 	mov	r5,r18
   226a4:	9809883a 	mov	r4,r19
   226a8:	002efb80 	call	2efb8 <__sprint_r>
   226ac:	103f2d1e 	bne	r2,zero,22364 <___vfprintf_internal_r+0x43c>
   226b0:	8c7ffc04 	addi	r17,r17,-16
   226b4:	89000448 	cmpgei	r4,r17,17
   226b8:	d8c01c17 	ldw	r3,112(sp)
   226bc:	d8801b17 	ldw	r2,108(sp)
   226c0:	dd802704 	addi	r22,sp,156
   226c4:	203fed1e 	bne	r4,zero,2267c <___vfprintf_internal_r+0x754>
   226c8:	e019883a 	mov	r12,fp
   226cc:	10800044 	addi	r2,r2,1
   226d0:	1c47883a 	add	r3,r3,r17
   226d4:	d8801b15 	stw	r2,108(sp)
   226d8:	b3000015 	stw	r12,0(r22)
   226dc:	b4400115 	stw	r17,4(r22)
   226e0:	d8c01c15 	stw	r3,112(sp)
   226e4:	10800210 	cmplti	r2,r2,8
   226e8:	103f121e 	bne	r2,zero,22334 <___vfprintf_internal_r+0x40c>
   226ec:	d9801a04 	addi	r6,sp,104
   226f0:	900b883a 	mov	r5,r18
   226f4:	9809883a 	mov	r4,r19
   226f8:	002efb80 	call	2efb8 <__sprint_r>
   226fc:	103f191e 	bne	r2,zero,22364 <___vfprintf_internal_r+0x43c>
   22700:	d8c01c17 	ldw	r3,112(sp)
   22704:	003f0b06 	br	22334 <___vfprintf_internal_r+0x40c>
   22708:	9809883a 	mov	r4,r19
   2270c:	0020fe80 	call	20fe8 <__sinit>
   22710:	003e1d06 	br	21f88 <___vfprintf_internal_r+0x60>
   22714:	21003fcc 	andi	r4,r4,255
   22718:	20059f1e 	bne	r4,zero,23d98 <___vfprintf_internal_r+0x1e70>
   2271c:	6080080c 	andi	r2,r12,32
   22720:	10004326 	beq	r2,zero,22830 <___vfprintf_internal_r+0x908>
   22724:	d8c00617 	ldw	r3,24(sp)
   22728:	18800117 	ldw	r2,4(r3)
   2272c:	1d000017 	ldw	r20,0(r3)
   22730:	18c00204 	addi	r3,r3,8
   22734:	d8c00615 	stw	r3,24(sp)
   22738:	102b883a 	mov	r21,r2
   2273c:	10004a16 	blt	r2,zero,22868 <___vfprintf_internal_r+0x940>
   22740:	40bfffd8 	cmpnei	r2,r8,-1
   22744:	db401343 	ldbu	r13,77(sp)
   22748:	10000626 	beq	r2,zero,22764 <___vfprintf_internal_r+0x83c>
   2274c:	047fdfc4 	movi	r17,-129
   22750:	6446703a 	and	r3,r12,r17
   22754:	a544b03a 	or	r2,r20,r21
   22758:	d8c00415 	stw	r3,16(sp)
   2275c:	1002f526 	beq	r2,zero,23334 <___vfprintf_internal_r+0x140c>
   22760:	db000417 	ldw	r12,16(sp)
   22764:	a8037f1e 	bne	r21,zero,23564 <___vfprintf_internal_r+0x163c>
   22768:	a08002a8 	cmpgeui	r2,r20,10
   2276c:	10037d1e 	bne	r2,zero,23564 <___vfprintf_internal_r+0x163c>
   22770:	a5000c04 	addi	r20,r20,48
   22774:	dd0026c5 	stb	r20,155(sp)
   22778:	db000415 	stw	r12,16(sp)
   2277c:	05400044 	movi	r21,1
   22780:	dc4026c4 	addi	r17,sp,155
   22784:	a829883a 	mov	r20,r21
   22788:	aa00010e 	bge	r21,r8,22790 <___vfprintf_internal_r+0x868>
   2278c:	4029883a 	mov	r20,r8
   22790:	d8000715 	stw	zero,28(sp)
   22794:	6b403fcc 	andi	r13,r13,255
   22798:	6b40201c 	xori	r13,r13,128
   2279c:	6b7fe004 	addi	r13,r13,-128
   227a0:	683ea926 	beq	r13,zero,22248 <___vfprintf_internal_r+0x320>
   227a4:	a5000044 	addi	r20,r20,1
   227a8:	003ea706 	br	22248 <___vfprintf_internal_r+0x320>
   227ac:	d8800617 	ldw	r2,24(sp)
   227b0:	14000017 	ldw	r16,0(r2)
   227b4:	10800104 	addi	r2,r2,4
   227b8:	8003160e 	bge	r16,zero,23414 <___vfprintf_internal_r+0x14ec>
   227bc:	0421c83a 	sub	r16,zero,r16
   227c0:	d8800615 	stw	r2,24(sp)
   227c4:	bac00007 	ldb	r11,0(r23)
   227c8:	63000114 	ori	r12,r12,4
   227cc:	003e2206 	br	22058 <___vfprintf_internal_r+0x130>
   227d0:	bf000007 	ldb	fp,0(r23)
   227d4:	b8800044 	addi	r2,r23,1
   227d8:	e0c00aa0 	cmpeqi	r3,fp,42
   227dc:	1805cb1e 	bne	r3,zero,23f0c <___vfprintf_internal_r+0x1fe4>
   227e0:	e0fff404 	addi	r3,fp,-48
   227e4:	198002b0 	cmpltui	r6,r3,10
   227e8:	102f883a 	mov	r23,r2
   227ec:	0011883a 	mov	r8,zero
   227f0:	303e1b26 	beq	r6,zero,22060 <___vfprintf_internal_r+0x138>
   227f4:	400490ba 	slli	r2,r8,2
   227f8:	bf000007 	ldb	fp,0(r23)
   227fc:	bdc00044 	addi	r23,r23,1
   22800:	1211883a 	add	r8,r2,r8
   22804:	4211883a 	add	r8,r8,r8
   22808:	40d1883a 	add	r8,r8,r3
   2280c:	e0fff404 	addi	r3,fp,-48
   22810:	188002b0 	cmpltui	r2,r3,10
   22814:	103ff71e 	bne	r2,zero,227f4 <___vfprintf_internal_r+0x8cc>
   22818:	003e1106 	br	22060 <___vfprintf_internal_r+0x138>
   2281c:	21003fcc 	andi	r4,r4,255
   22820:	2005551e 	bne	r4,zero,23d78 <___vfprintf_internal_r+0x1e50>
   22824:	63000414 	ori	r12,r12,16
   22828:	6080080c 	andi	r2,r12,32
   2282c:	103fbd1e 	bne	r2,zero,22724 <___vfprintf_internal_r+0x7fc>
   22830:	d8c00617 	ldw	r3,24(sp)
   22834:	6080040c 	andi	r2,r12,16
   22838:	1d000017 	ldw	r20,0(r3)
   2283c:	18c00104 	addi	r3,r3,4
   22840:	1002ea1e 	bne	r2,zero,233ec <___vfprintf_internal_r+0x14c4>
   22844:	6080100c 	andi	r2,r12,64
   22848:	1002e826 	beq	r2,zero,233ec <___vfprintf_internal_r+0x14c4>
   2284c:	a53fffcc 	andi	r20,r20,65535
   22850:	a520001c 	xori	r20,r20,32768
   22854:	a5200004 	addi	r20,r20,-32768
   22858:	a02bd7fa 	srai	r21,r20,31
   2285c:	d8c00615 	stw	r3,24(sp)
   22860:	a805883a 	mov	r2,r21
   22864:	103fb60e 	bge	r2,zero,22740 <___vfprintf_internal_r+0x818>
   22868:	03400b44 	movi	r13,45
   2286c:	a004c03a 	cmpne	r2,r20,zero
   22870:	056bc83a 	sub	r21,zero,r21
   22874:	db401345 	stb	r13,77(sp)
   22878:	40ffffe0 	cmpeqi	r3,r8,-1
   2287c:	a8abc83a 	sub	r21,r21,r2
   22880:	0529c83a 	sub	r20,zero,r20
   22884:	00800044 	movi	r2,1
   22888:	183ef726 	beq	r3,zero,22468 <___vfprintf_internal_r+0x540>
   2288c:	10c00060 	cmpeqi	r3,r2,1
   22890:	183fb41e 	bne	r3,zero,22764 <___vfprintf_internal_r+0x83c>
   22894:	108000a0 	cmpeqi	r2,r2,2
   22898:	10015d1e 	bne	r2,zero,22e10 <___vfprintf_internal_r+0xee8>
   2289c:	dc402704 	addi	r17,sp,156
   228a0:	a006d0fa 	srli	r3,r20,3
   228a4:	a808977a 	slli	r4,r21,29
   228a8:	a82ad0fa 	srli	r21,r21,3
   228ac:	a50001cc 	andi	r20,r20,7
   228b0:	a0800c04 	addi	r2,r20,48
   228b4:	20e8b03a 	or	r20,r4,r3
   228b8:	88bfffc5 	stb	r2,-1(r17)
   228bc:	a546b03a 	or	r3,r20,r21
   228c0:	880b883a 	mov	r5,r17
   228c4:	8c7fffc4 	addi	r17,r17,-1
   228c8:	183ff51e 	bne	r3,zero,228a0 <___vfprintf_internal_r+0x978>
   228cc:	60c0004c 	andi	r3,r12,1
   228d0:	18015c26 	beq	r3,zero,22e44 <___vfprintf_internal_r+0xf1c>
   228d4:	10803fcc 	andi	r2,r2,255
   228d8:	1080201c 	xori	r2,r2,128
   228dc:	10bfe004 	addi	r2,r2,-128
   228e0:	10800c18 	cmpnei	r2,r2,48
   228e4:	10015726 	beq	r2,zero,22e44 <___vfprintf_internal_r+0xf1c>
   228e8:	00800c04 	movi	r2,48
   228ec:	297fff84 	addi	r5,r5,-2
   228f0:	88bfffc5 	stb	r2,-1(r17)
   228f4:	d8802704 	addi	r2,sp,156
   228f8:	116bc83a 	sub	r21,r2,r5
   228fc:	db000415 	stw	r12,16(sp)
   22900:	2823883a 	mov	r17,r5
   22904:	003f9f06 	br	22784 <___vfprintf_internal_r+0x85c>
   22908:	bac00007 	ldb	r11,0(r23)
   2290c:	63002014 	ori	r12,r12,128
   22910:	003dd106 	br	22058 <___vfprintf_internal_r+0x130>
   22914:	bac00007 	ldb	r11,0(r23)
   22918:	01000044 	movi	r4,1
   2291c:	01400ac4 	movi	r5,43
   22920:	003dcd06 	br	22058 <___vfprintf_internal_r+0x130>
   22924:	bac00007 	ldb	r11,0(r23)
   22928:	63000054 	ori	r12,r12,1
   2292c:	003dca06 	br	22058 <___vfprintf_internal_r+0x130>
   22930:	28803fcc 	andi	r2,r5,255
   22934:	1080201c 	xori	r2,r2,128
   22938:	10bfe004 	addi	r2,r2,-128
   2293c:	bf000003 	ldbu	fp,0(r23)
   22940:	10000c1e 	bne	r2,zero,22974 <___vfprintf_internal_r+0xa4c>
   22944:	e2c03fcc 	andi	r11,fp,255
   22948:	5ac0201c 	xori	r11,r11,128
   2294c:	01000044 	movi	r4,1
   22950:	01400804 	movi	r5,32
   22954:	5affe004 	addi	r11,r11,-128
   22958:	003dbf06 	br	22058 <___vfprintf_internal_r+0x130>
   2295c:	bac00007 	ldb	r11,0(r23)
   22960:	58801b18 	cmpnei	r2,r11,108
   22964:	1002a91e 	bne	r2,zero,2340c <___vfprintf_internal_r+0x14e4>
   22968:	bf000043 	ldbu	fp,1(r23)
   2296c:	63000814 	ori	r12,r12,32
   22970:	bdc00044 	addi	r23,r23,1
   22974:	e2c03fcc 	andi	r11,fp,255
   22978:	5ac0201c 	xori	r11,r11,128
   2297c:	5affe004 	addi	r11,r11,-128
   22980:	003db506 	br	22058 <___vfprintf_internal_r+0x130>
   22984:	21003fcc 	andi	r4,r4,255
   22988:	2005051e 	bne	r4,zero,23da0 <___vfprintf_internal_r+0x1e78>
   2298c:	00800134 	movhi	r2,4
   22990:	10a4b104 	addi	r2,r2,-27964
   22994:	d8800c15 	stw	r2,48(sp)
   22998:	6080080c 	andi	r2,r12,32
   2299c:	10005b26 	beq	r2,zero,22b0c <___vfprintf_internal_r+0xbe4>
   229a0:	d8800617 	ldw	r2,24(sp)
   229a4:	15000017 	ldw	r20,0(r2)
   229a8:	15400117 	ldw	r21,4(r2)
   229ac:	10800204 	addi	r2,r2,8
   229b0:	d8800615 	stw	r2,24(sp)
   229b4:	6080004c 	andi	r2,r12,1
   229b8:	10000226 	beq	r2,zero,229c4 <___vfprintf_internal_r+0xa9c>
   229bc:	a544b03a 	or	r2,r20,r21
   229c0:	10029e1e 	bne	r2,zero,2343c <___vfprintf_internal_r+0x1514>
   229c4:	00800084 	movi	r2,2
   229c8:	003ea306 	br	22458 <___vfprintf_internal_r+0x530>
   229cc:	d8800617 	ldw	r2,24(sp)
   229d0:	d8001345 	stb	zero,77(sp)
   229d4:	14400017 	ldw	r17,0(r2)
   229d8:	10c00104 	addi	r3,r2,4
   229dc:	8802bb26 	beq	r17,zero,234cc <___vfprintf_internal_r+0x15a4>
   229e0:	40bfffe0 	cmpeqi	r2,r8,-1
   229e4:	1003c91e 	bne	r2,zero,2390c <___vfprintf_internal_r+0x19e4>
   229e8:	400d883a 	mov	r6,r8
   229ec:	000b883a 	mov	r5,zero
   229f0:	8809883a 	mov	r4,r17
   229f4:	d8c00715 	stw	r3,28(sp)
   229f8:	db000615 	stw	r12,24(sp)
   229fc:	da000415 	stw	r8,16(sp)
   22a00:	0028a140 	call	28a14 <memchr>
   22a04:	da000417 	ldw	r8,16(sp)
   22a08:	db000617 	ldw	r12,24(sp)
   22a0c:	d8c00717 	ldw	r3,28(sp)
   22a10:	1004d526 	beq	r2,zero,23d68 <___vfprintf_internal_r+0x1e40>
   22a14:	146bc83a 	sub	r21,r2,r17
   22a18:	a829883a 	mov	r20,r21
   22a1c:	d8c00615 	stw	r3,24(sp)
   22a20:	003e0606 	br	2223c <___vfprintf_internal_r+0x314>
   22a24:	bac00007 	ldb	r11,0(r23)
   22a28:	63000814 	ori	r12,r12,32
   22a2c:	003d8a06 	br	22058 <___vfprintf_internal_r+0x130>
   22a30:	d8c00617 	ldw	r3,24(sp)
   22a34:	00800c04 	movi	r2,48
   22a38:	d8801385 	stb	r2,78(sp)
   22a3c:	00801e04 	movi	r2,120
   22a40:	01000134 	movhi	r4,4
   22a44:	d88013c5 	stb	r2,79(sp)
   22a48:	18800104 	addi	r2,r3,4
   22a4c:	d8800615 	stw	r2,24(sp)
   22a50:	20a4b104 	addi	r2,r4,-27964
   22a54:	d8800c15 	stw	r2,48(sp)
   22a58:	1d000017 	ldw	r20,0(r3)
   22a5c:	002b883a 	mov	r21,zero
   22a60:	63000094 	ori	r12,r12,2
   22a64:	00800084 	movi	r2,2
   22a68:	07001e04 	movi	fp,120
   22a6c:	003e7a06 	br	22458 <___vfprintf_internal_r+0x530>
   22a70:	21003fcc 	andi	r4,r4,255
   22a74:	2004c41e 	bne	r4,zero,23d88 <___vfprintf_internal_r+0x1e60>
   22a78:	d9000617 	ldw	r4,24(sp)
   22a7c:	6080080c 	andi	r2,r12,32
   22a80:	20c00104 	addi	r3,r4,4
   22a84:	1002731e 	bne	r2,zero,23454 <___vfprintf_internal_r+0x152c>
   22a88:	6080040c 	andi	r2,r12,16
   22a8c:	1002dd1e 	bne	r2,zero,23604 <___vfprintf_internal_r+0x16dc>
   22a90:	6300100c 	andi	r12,r12,64
   22a94:	6002db26 	beq	r12,zero,23604 <___vfprintf_internal_r+0x16dc>
   22a98:	d8800617 	ldw	r2,24(sp)
   22a9c:	d8c00615 	stw	r3,24(sp)
   22aa0:	d8c00517 	ldw	r3,20(sp)
   22aa4:	10800017 	ldw	r2,0(r2)
   22aa8:	10c0000d 	sth	r3,0(r2)
   22aac:	003d5206 	br	21ff8 <___vfprintf_internal_r+0xd0>
   22ab0:	bac00007 	ldb	r11,0(r23)
   22ab4:	63000214 	ori	r12,r12,8
   22ab8:	003d6706 	br	22058 <___vfprintf_internal_r+0x130>
   22abc:	bac00007 	ldb	r11,0(r23)
   22ac0:	63001014 	ori	r12,r12,64
   22ac4:	003d6406 	br	22058 <___vfprintf_internal_r+0x130>
   22ac8:	d8c00617 	ldw	r3,24(sp)
   22acc:	d8001345 	stb	zero,77(sp)
   22ad0:	05000044 	movi	r20,1
   22ad4:	18800017 	ldw	r2,0(r3)
   22ad8:	18c00104 	addi	r3,r3,4
   22adc:	d8c00615 	stw	r3,24(sp)
   22ae0:	d8801d05 	stb	r2,116(sp)
   22ae4:	05400044 	movi	r21,1
   22ae8:	dc401d04 	addi	r17,sp,116
   22aec:	003dd306 	br	2223c <___vfprintf_internal_r+0x314>
   22af0:	21003fcc 	andi	r4,r4,255
   22af4:	2004a21e 	bne	r4,zero,23d80 <___vfprintf_internal_r+0x1e58>
   22af8:	00800134 	movhi	r2,4
   22afc:	10a4ac04 	addi	r2,r2,-27984
   22b00:	d8800c15 	stw	r2,48(sp)
   22b04:	6080080c 	andi	r2,r12,32
   22b08:	103fa51e 	bne	r2,zero,229a0 <___vfprintf_internal_r+0xa78>
   22b0c:	d8c00617 	ldw	r3,24(sp)
   22b10:	6080040c 	andi	r2,r12,16
   22b14:	1d000017 	ldw	r20,0(r3)
   22b18:	18c00104 	addi	r3,r3,4
   22b1c:	1002301e 	bne	r2,zero,233e0 <___vfprintf_internal_r+0x14b8>
   22b20:	6080100c 	andi	r2,r12,64
   22b24:	10022e26 	beq	r2,zero,233e0 <___vfprintf_internal_r+0x14b8>
   22b28:	a53fffcc 	andi	r20,r20,65535
   22b2c:	002b883a 	mov	r21,zero
   22b30:	d8c00615 	stw	r3,24(sp)
   22b34:	003f9f06 	br	229b4 <___vfprintf_internal_r+0xa8c>
   22b38:	e2c01990 	cmplti	r11,fp,102
   22b3c:	5800fb1e 	bne	r11,zero,22f2c <___vfprintf_internal_r+0x1004>
   22b40:	d9000917 	ldw	r4,36(sp)
   22b44:	d9400a17 	ldw	r5,40(sp)
   22b48:	000d883a 	mov	r6,zero
   22b4c:	000f883a 	mov	r7,zero
   22b50:	d8c00e15 	stw	r3,56(sp)
   22b54:	00350c00 	call	350c0 <__eqdf2>
   22b58:	d8c00e17 	ldw	r3,56(sp)
   22b5c:	1001891e 	bne	r2,zero,23184 <___vfprintf_internal_r+0x125c>
   22b60:	d8801b17 	ldw	r2,108(sp)
   22b64:	01000134 	movhi	r4,4
   22b68:	2124b804 	addi	r4,r4,-27936
   22b6c:	10800044 	addi	r2,r2,1
   22b70:	18c00044 	addi	r3,r3,1
   22b74:	b1000015 	stw	r4,0(r22)
   22b78:	01000044 	movi	r4,1
   22b7c:	d8801b15 	stw	r2,108(sp)
   22b80:	b1000115 	stw	r4,4(r22)
   22b84:	d8c01c15 	stw	r3,112(sp)
   22b88:	10800208 	cmpgei	r2,r2,8
   22b8c:	10034d1e 	bne	r2,zero,238c4 <___vfprintf_internal_r+0x199c>
   22b90:	b5800204 	addi	r22,r22,8
   22b94:	d8801417 	ldw	r2,80(sp)
   22b98:	d9000817 	ldw	r4,32(sp)
   22b9c:	1102170e 	bge	r2,r4,233fc <___vfprintf_internal_r+0x14d4>
   22ba0:	d8800d17 	ldw	r2,52(sp)
   22ba4:	d9000b17 	ldw	r4,44(sp)
   22ba8:	b0800015 	stw	r2,0(r22)
   22bac:	d8801b17 	ldw	r2,108(sp)
   22bb0:	1907883a 	add	r3,r3,r4
   22bb4:	b1000115 	stw	r4,4(r22)
   22bb8:	10800044 	addi	r2,r2,1
   22bbc:	d8801b15 	stw	r2,108(sp)
   22bc0:	d8c01c15 	stw	r3,112(sp)
   22bc4:	10800208 	cmpgei	r2,r2,8
   22bc8:	1002381e 	bne	r2,zero,234ac <___vfprintf_internal_r+0x1584>
   22bcc:	b5800204 	addi	r22,r22,8
   22bd0:	d8800817 	ldw	r2,32(sp)
   22bd4:	157fffc4 	addi	r21,r2,-1
   22bd8:	057dd10e 	bge	zero,r21,22320 <___vfprintf_internal_r+0x3f8>
   22bdc:	01c00134 	movhi	r7,4
   22be0:	a9000450 	cmplti	r4,r21,17
   22be4:	d8801b17 	ldw	r2,108(sp)
   22be8:	39e4b904 	addi	r7,r7,-27932
   22bec:	2003311e 	bne	r4,zero,238b4 <___vfprintf_internal_r+0x198c>
   22bf0:	07000404 	movi	fp,16
   22bf4:	3823883a 	mov	r17,r7
   22bf8:	00000406 	br	22c0c <___vfprintf_internal_r+0xce4>
   22bfc:	b5800204 	addi	r22,r22,8
   22c00:	ad7ffc04 	addi	r21,r21,-16
   22c04:	a9000448 	cmpgei	r4,r21,17
   22c08:	20032926 	beq	r4,zero,238b0 <___vfprintf_internal_r+0x1988>
   22c0c:	10800044 	addi	r2,r2,1
   22c10:	18c00404 	addi	r3,r3,16
   22c14:	b4400015 	stw	r17,0(r22)
   22c18:	b7000115 	stw	fp,4(r22)
   22c1c:	d8c01c15 	stw	r3,112(sp)
   22c20:	d8801b15 	stw	r2,108(sp)
   22c24:	11000208 	cmpgei	r4,r2,8
   22c28:	203ff426 	beq	r4,zero,22bfc <___vfprintf_internal_r+0xcd4>
   22c2c:	d9801a04 	addi	r6,sp,104
   22c30:	900b883a 	mov	r5,r18
   22c34:	9809883a 	mov	r4,r19
   22c38:	002efb80 	call	2efb8 <__sprint_r>
   22c3c:	103dc91e 	bne	r2,zero,22364 <___vfprintf_internal_r+0x43c>
   22c40:	d8c01c17 	ldw	r3,112(sp)
   22c44:	d8801b17 	ldw	r2,108(sp)
   22c48:	dd802704 	addi	r22,sp,156
   22c4c:	003fec06 	br	22c00 <___vfprintf_internal_r+0xcd8>
   22c50:	8519c83a 	sub	r12,r16,r20
   22c54:	033da30e 	bge	zero,r12,222e4 <___vfprintf_internal_r+0x3bc>
   22c58:	01c00134 	movhi	r7,4
   22c5c:	61000450 	cmplti	r4,r12,17
   22c60:	d8801b17 	ldw	r2,108(sp)
   22c64:	39e4b904 	addi	r7,r7,-27932
   22c68:	2000281e 	bne	r4,zero,22d0c <___vfprintf_internal_r+0xde4>
   22c6c:	dc400e15 	stw	r17,56(sp)
   22c70:	dc000f15 	stw	r16,60(sp)
   22c74:	b009883a 	mov	r4,r22
   22c78:	03400404 	movi	r13,16
   22c7c:	a02d883a 	mov	r22,r20
   22c80:	6021883a 	mov	r16,r12
   22c84:	4029883a 	mov	r20,r8
   22c88:	3823883a 	mov	r17,r7
   22c8c:	00000406 	br	22ca0 <___vfprintf_internal_r+0xd78>
   22c90:	843ffc04 	addi	r16,r16,-16
   22c94:	81400448 	cmpgei	r5,r16,17
   22c98:	21000204 	addi	r4,r4,8
   22c9c:	28001426 	beq	r5,zero,22cf0 <___vfprintf_internal_r+0xdc8>
   22ca0:	10800044 	addi	r2,r2,1
   22ca4:	18c00404 	addi	r3,r3,16
   22ca8:	24400015 	stw	r17,0(r4)
   22cac:	23400115 	stw	r13,4(r4)
   22cb0:	d8c01c15 	stw	r3,112(sp)
   22cb4:	d8801b15 	stw	r2,108(sp)
   22cb8:	11400208 	cmpgei	r5,r2,8
   22cbc:	283ff426 	beq	r5,zero,22c90 <___vfprintf_internal_r+0xd68>
   22cc0:	d9801a04 	addi	r6,sp,104
   22cc4:	900b883a 	mov	r5,r18
   22cc8:	9809883a 	mov	r4,r19
   22ccc:	002efb80 	call	2efb8 <__sprint_r>
   22cd0:	103da41e 	bne	r2,zero,22364 <___vfprintf_internal_r+0x43c>
   22cd4:	843ffc04 	addi	r16,r16,-16
   22cd8:	81400448 	cmpgei	r5,r16,17
   22cdc:	d8c01c17 	ldw	r3,112(sp)
   22ce0:	d8801b17 	ldw	r2,108(sp)
   22ce4:	d9002704 	addi	r4,sp,156
   22ce8:	03400404 	movi	r13,16
   22cec:	283fec1e 	bne	r5,zero,22ca0 <___vfprintf_internal_r+0xd78>
   22cf0:	8019883a 	mov	r12,r16
   22cf4:	880f883a 	mov	r7,r17
   22cf8:	dc000f17 	ldw	r16,60(sp)
   22cfc:	dc400e17 	ldw	r17,56(sp)
   22d00:	a011883a 	mov	r8,r20
   22d04:	b029883a 	mov	r20,r22
   22d08:	202d883a 	mov	r22,r4
   22d0c:	10800044 	addi	r2,r2,1
   22d10:	1b07883a 	add	r3,r3,r12
   22d14:	d8801b15 	stw	r2,108(sp)
   22d18:	b1c00015 	stw	r7,0(r22)
   22d1c:	b3000115 	stw	r12,4(r22)
   22d20:	d8c01c15 	stw	r3,112(sp)
   22d24:	10800208 	cmpgei	r2,r2,8
   22d28:	1002ee1e 	bne	r2,zero,238e4 <___vfprintf_internal_r+0x19bc>
   22d2c:	4551c83a 	sub	r8,r8,r21
   22d30:	b5800204 	addi	r22,r22,8
   22d34:	023d6d0e 	bge	zero,r8,222ec <___vfprintf_internal_r+0x3c4>
   22d38:	01c00134 	movhi	r7,4
   22d3c:	41000450 	cmplti	r4,r8,17
   22d40:	d8801b17 	ldw	r2,108(sp)
   22d44:	39e4b904 	addi	r7,r7,-27932
   22d48:	2000221e 	bne	r4,zero,22dd4 <___vfprintf_internal_r+0xeac>
   22d4c:	dc400e15 	stw	r17,56(sp)
   22d50:	dc000f15 	stw	r16,60(sp)
   22d54:	03000404 	movi	r12,16
   22d58:	4021883a 	mov	r16,r8
   22d5c:	3823883a 	mov	r17,r7
   22d60:	00000406 	br	22d74 <___vfprintf_internal_r+0xe4c>
   22d64:	843ffc04 	addi	r16,r16,-16
   22d68:	81000448 	cmpgei	r4,r16,17
   22d6c:	b5800204 	addi	r22,r22,8
   22d70:	20001426 	beq	r4,zero,22dc4 <___vfprintf_internal_r+0xe9c>
   22d74:	10800044 	addi	r2,r2,1
   22d78:	18c00404 	addi	r3,r3,16
   22d7c:	b4400015 	stw	r17,0(r22)
   22d80:	b3000115 	stw	r12,4(r22)
   22d84:	d8c01c15 	stw	r3,112(sp)
   22d88:	d8801b15 	stw	r2,108(sp)
   22d8c:	11000208 	cmpgei	r4,r2,8
   22d90:	203ff426 	beq	r4,zero,22d64 <___vfprintf_internal_r+0xe3c>
   22d94:	d9801a04 	addi	r6,sp,104
   22d98:	900b883a 	mov	r5,r18
   22d9c:	9809883a 	mov	r4,r19
   22da0:	002efb80 	call	2efb8 <__sprint_r>
   22da4:	103d6f1e 	bne	r2,zero,22364 <___vfprintf_internal_r+0x43c>
   22da8:	843ffc04 	addi	r16,r16,-16
   22dac:	81000448 	cmpgei	r4,r16,17
   22db0:	d8c01c17 	ldw	r3,112(sp)
   22db4:	d8801b17 	ldw	r2,108(sp)
   22db8:	dd802704 	addi	r22,sp,156
   22dbc:	03000404 	movi	r12,16
   22dc0:	203fec1e 	bne	r4,zero,22d74 <___vfprintf_internal_r+0xe4c>
   22dc4:	8011883a 	mov	r8,r16
   22dc8:	880f883a 	mov	r7,r17
   22dcc:	dc000f17 	ldw	r16,60(sp)
   22dd0:	dc400e17 	ldw	r17,56(sp)
   22dd4:	10800044 	addi	r2,r2,1
   22dd8:	1a07883a 	add	r3,r3,r8
   22ddc:	d8801b15 	stw	r2,108(sp)
   22de0:	b1c00015 	stw	r7,0(r22)
   22de4:	b2000115 	stw	r8,4(r22)
   22de8:	d8c01c15 	stw	r3,112(sp)
   22dec:	10800208 	cmpgei	r2,r2,8
   22df0:	1001731e 	bne	r2,zero,233c0 <___vfprintf_internal_r+0x1498>
   22df4:	b5800204 	addi	r22,r22,8
   22df8:	003d3c06 	br	222ec <___vfprintf_internal_r+0x3c4>
   22dfc:	10c00060 	cmpeqi	r3,r2,1
   22e00:	1803861e 	bne	r3,zero,23c1c <___vfprintf_internal_r+0x1cf4>
   22e04:	108000a0 	cmpeqi	r2,r2,2
   22e08:	db000417 	ldw	r12,16(sp)
   22e0c:	103ea326 	beq	r2,zero,2289c <___vfprintf_internal_r+0x974>
   22e10:	d9000c17 	ldw	r4,48(sp)
   22e14:	dc402704 	addi	r17,sp,156
   22e18:	a08003cc 	andi	r2,r20,15
   22e1c:	a806973a 	slli	r3,r21,28
   22e20:	a028d13a 	srli	r20,r20,4
   22e24:	2085883a 	add	r2,r4,r2
   22e28:	10800003 	ldbu	r2,0(r2)
   22e2c:	a82ad13a 	srli	r21,r21,4
   22e30:	1d28b03a 	or	r20,r3,r20
   22e34:	88bfffc5 	stb	r2,-1(r17)
   22e38:	a544b03a 	or	r2,r20,r21
   22e3c:	8c7fffc4 	addi	r17,r17,-1
   22e40:	103ff51e 	bne	r2,zero,22e18 <___vfprintf_internal_r+0xef0>
   22e44:	d8802704 	addi	r2,sp,156
   22e48:	146bc83a 	sub	r21,r2,r17
   22e4c:	db000415 	stw	r12,16(sp)
   22e50:	003e4c06 	br	22784 <___vfprintf_internal_r+0x85c>
   22e54:	d9801a04 	addi	r6,sp,104
   22e58:	900b883a 	mov	r5,r18
   22e5c:	9809883a 	mov	r4,r19
   22e60:	002efb80 	call	2efb8 <__sprint_r>
   22e64:	103d3926 	beq	r2,zero,2234c <___vfprintf_internal_r+0x424>
   22e68:	003d3e06 	br	22364 <___vfprintf_internal_r+0x43c>
   22e6c:	d8801b17 	ldw	r2,108(sp)
   22e70:	01000134 	movhi	r4,4
   22e74:	2124b804 	addi	r4,r4,-27936
   22e78:	10800044 	addi	r2,r2,1
   22e7c:	18c00044 	addi	r3,r3,1
   22e80:	b1000015 	stw	r4,0(r22)
   22e84:	01000044 	movi	r4,1
   22e88:	d8801b15 	stw	r2,108(sp)
   22e8c:	b1000115 	stw	r4,4(r22)
   22e90:	d8c01c15 	stw	r3,112(sp)
   22e94:	10800208 	cmpgei	r2,r2,8
   22e98:	1003241e 	bne	r2,zero,23b2c <___vfprintf_internal_r+0x1c04>
   22e9c:	b5800204 	addi	r22,r22,8
   22ea0:	a802a81e 	bne	r21,zero,23944 <___vfprintf_internal_r+0x1a1c>
   22ea4:	d8800417 	ldw	r2,16(sp)
   22ea8:	d9000817 	ldw	r4,32(sp)
   22eac:	1080004c 	andi	r2,r2,1
   22eb0:	1104b03a 	or	r2,r2,r4
   22eb4:	103d1a26 	beq	r2,zero,22320 <___vfprintf_internal_r+0x3f8>
   22eb8:	d8800d17 	ldw	r2,52(sp)
   22ebc:	d9000b17 	ldw	r4,44(sp)
   22ec0:	b0800015 	stw	r2,0(r22)
   22ec4:	d8801b17 	ldw	r2,108(sp)
   22ec8:	20c7883a 	add	r3,r4,r3
   22ecc:	b1000115 	stw	r4,4(r22)
   22ed0:	10800044 	addi	r2,r2,1
   22ed4:	d8c01c15 	stw	r3,112(sp)
   22ed8:	d8801b15 	stw	r2,108(sp)
   22edc:	11000208 	cmpgei	r4,r2,8
   22ee0:	20033b1e 	bne	r4,zero,23bd0 <___vfprintf_internal_r+0x1ca8>
   22ee4:	b5800204 	addi	r22,r22,8
   22ee8:	d9000817 	ldw	r4,32(sp)
   22eec:	10800044 	addi	r2,r2,1
   22ef0:	d8801b15 	stw	r2,108(sp)
   22ef4:	20c7883a 	add	r3,r4,r3
   22ef8:	b4400015 	stw	r17,0(r22)
   22efc:	b1000115 	stw	r4,4(r22)
   22f00:	d8c01c15 	stw	r3,112(sp)
   22f04:	10800208 	cmpgei	r2,r2,8
   22f08:	103d0426 	beq	r2,zero,2231c <___vfprintf_internal_r+0x3f4>
   22f0c:	d9801a04 	addi	r6,sp,104
   22f10:	900b883a 	mov	r5,r18
   22f14:	9809883a 	mov	r4,r19
   22f18:	002efb80 	call	2efb8 <__sprint_r>
   22f1c:	103d111e 	bne	r2,zero,22364 <___vfprintf_internal_r+0x43c>
   22f20:	d8c01c17 	ldw	r3,112(sp)
   22f24:	dd802704 	addi	r22,sp,156
   22f28:	003cfd06 	br	22320 <___vfprintf_internal_r+0x3f8>
   22f2c:	d8800817 	ldw	r2,32(sp)
   22f30:	dd401b17 	ldw	r21,108(sp)
   22f34:	18c00044 	addi	r3,r3,1
   22f38:	10800088 	cmpgei	r2,r2,2
   22f3c:	ad400044 	addi	r21,r21,1
   22f40:	b7000204 	addi	fp,r22,8
   22f44:	1000e826 	beq	r2,zero,232e8 <___vfprintf_internal_r+0x13c0>
   22f48:	00800044 	movi	r2,1
   22f4c:	b0800115 	stw	r2,4(r22)
   22f50:	b4400015 	stw	r17,0(r22)
   22f54:	d8c01c15 	stw	r3,112(sp)
   22f58:	dd401b15 	stw	r21,108(sp)
   22f5c:	a8800210 	cmplti	r2,r21,8
   22f60:	1001ae26 	beq	r2,zero,2361c <___vfprintf_internal_r+0x16f4>
   22f64:	d8800b17 	ldw	r2,44(sp)
   22f68:	d9000d17 	ldw	r4,52(sp)
   22f6c:	ad400044 	addi	r21,r21,1
   22f70:	1887883a 	add	r3,r3,r2
   22f74:	e0800115 	stw	r2,4(fp)
   22f78:	e1000015 	stw	r4,0(fp)
   22f7c:	d8c01c15 	stw	r3,112(sp)
   22f80:	dd401b15 	stw	r21,108(sp)
   22f84:	a8800208 	cmpgei	r2,r21,8
   22f88:	1001ad1e 	bne	r2,zero,23640 <___vfprintf_internal_r+0x1718>
   22f8c:	e7000204 	addi	fp,fp,8
   22f90:	d9000917 	ldw	r4,36(sp)
   22f94:	d9400a17 	ldw	r5,40(sp)
   22f98:	000d883a 	mov	r6,zero
   22f9c:	000f883a 	mov	r7,zero
   22fa0:	d8c00715 	stw	r3,28(sp)
   22fa4:	00350c00 	call	350c0 <__eqdf2>
   22fa8:	d8c00817 	ldw	r3,32(sp)
   22fac:	1dbfffc4 	addi	r22,r3,-1
   22fb0:	d8c00717 	ldw	r3,28(sp)
   22fb4:	1000e426 	beq	r2,zero,23348 <___vfprintf_internal_r+0x1420>
   22fb8:	8a400044 	addi	r9,r17,1
   22fbc:	ad400044 	addi	r21,r21,1
   22fc0:	1d87883a 	add	r3,r3,r22
   22fc4:	e2400015 	stw	r9,0(fp)
   22fc8:	e5800115 	stw	r22,4(fp)
   22fcc:	d8c01c15 	stw	r3,112(sp)
   22fd0:	dd401b15 	stw	r21,108(sp)
   22fd4:	a8800208 	cmpgei	r2,r21,8
   22fd8:	1000cd1e 	bne	r2,zero,23310 <___vfprintf_internal_r+0x13e8>
   22fdc:	e7000204 	addi	fp,fp,8
   22fe0:	d9001017 	ldw	r4,64(sp)
   22fe4:	ad400044 	addi	r21,r21,1
   22fe8:	d8801644 	addi	r2,sp,89
   22fec:	20c7883a 	add	r3,r4,r3
   22ff0:	dd401b15 	stw	r21,108(sp)
   22ff4:	e0800015 	stw	r2,0(fp)
   22ff8:	e1000115 	stw	r4,4(fp)
   22ffc:	d8c01c15 	stw	r3,112(sp)
   23000:	ad400208 	cmpgei	r21,r21,8
   23004:	a83fc11e 	bne	r21,zero,22f0c <___vfprintf_internal_r+0xfe4>
   23008:	e5800204 	addi	r22,fp,8
   2300c:	003cc406 	br	22320 <___vfprintf_internal_r+0x3f8>
   23010:	db000417 	ldw	r12,16(sp)
   23014:	003e1d06 	br	2288c <___vfprintf_internal_r+0x964>
   23018:	03000134 	movhi	r12,4
   2301c:	39000450 	cmplti	r4,r7,17
   23020:	d8801b17 	ldw	r2,108(sp)
   23024:	6324bd04 	addi	r12,r12,-27916
   23028:	2000321e 	bne	r4,zero,230f4 <___vfprintf_internal_r+0x11cc>
   2302c:	dc401115 	stw	r17,68(sp)
   23030:	b009883a 	mov	r4,r22
   23034:	9023883a 	mov	r17,r18
   23038:	a82d883a 	mov	r22,r21
   2303c:	ddc01215 	stw	r23,72(sp)
   23040:	03c00404 	movi	r15,16
   23044:	a02f883a 	mov	r23,r20
   23048:	db800e15 	stw	r14,56(sp)
   2304c:	8029883a 	mov	r20,r16
   23050:	db400f15 	stw	r13,60(sp)
   23054:	402b883a 	mov	r21,r8
   23058:	3821883a 	mov	r16,r7
   2305c:	6025883a 	mov	r18,r12
   23060:	00000406 	br	23074 <___vfprintf_internal_r+0x114c>
   23064:	843ffc04 	addi	r16,r16,-16
   23068:	81800448 	cmpgei	r6,r16,17
   2306c:	21000204 	addi	r4,r4,8
   23070:	30001426 	beq	r6,zero,230c4 <___vfprintf_internal_r+0x119c>
   23074:	10800044 	addi	r2,r2,1
   23078:	18c00404 	addi	r3,r3,16
   2307c:	24800015 	stw	r18,0(r4)
   23080:	23c00115 	stw	r15,4(r4)
   23084:	d8c01c15 	stw	r3,112(sp)
   23088:	d8801b15 	stw	r2,108(sp)
   2308c:	11800208 	cmpgei	r6,r2,8
   23090:	303ff426 	beq	r6,zero,23064 <___vfprintf_internal_r+0x113c>
   23094:	d9801a04 	addi	r6,sp,104
   23098:	880b883a 	mov	r5,r17
   2309c:	9809883a 	mov	r4,r19
   230a0:	002efb80 	call	2efb8 <__sprint_r>
   230a4:	10017d1e 	bne	r2,zero,2369c <___vfprintf_internal_r+0x1774>
   230a8:	843ffc04 	addi	r16,r16,-16
   230ac:	81800448 	cmpgei	r6,r16,17
   230b0:	d8c01c17 	ldw	r3,112(sp)
   230b4:	d8801b17 	ldw	r2,108(sp)
   230b8:	d9002704 	addi	r4,sp,156
   230bc:	03c00404 	movi	r15,16
   230c0:	303fec1e 	bne	r6,zero,23074 <___vfprintf_internal_r+0x114c>
   230c4:	800f883a 	mov	r7,r16
   230c8:	9019883a 	mov	r12,r18
   230cc:	a021883a 	mov	r16,r20
   230d0:	8825883a 	mov	r18,r17
   230d4:	b829883a 	mov	r20,r23
   230d8:	db800e17 	ldw	r14,56(sp)
   230dc:	db400f17 	ldw	r13,60(sp)
   230e0:	ddc01217 	ldw	r23,72(sp)
   230e4:	dc401117 	ldw	r17,68(sp)
   230e8:	a811883a 	mov	r8,r21
   230ec:	b02b883a 	mov	r21,r22
   230f0:	202d883a 	mov	r22,r4
   230f4:	10800044 	addi	r2,r2,1
   230f8:	19c7883a 	add	r3,r3,r7
   230fc:	d8801b15 	stw	r2,108(sp)
   23100:	b3000015 	stw	r12,0(r22)
   23104:	b1c00115 	stw	r7,4(r22)
   23108:	d8c01c15 	stw	r3,112(sp)
   2310c:	10800208 	cmpgei	r2,r2,8
   23110:	1001541e 	bne	r2,zero,23664 <___vfprintf_internal_r+0x173c>
   23114:	b5800204 	addi	r22,r22,8
   23118:	003c5506 	br	22270 <___vfprintf_internal_r+0x348>
   2311c:	d9801a04 	addi	r6,sp,104
   23120:	900b883a 	mov	r5,r18
   23124:	9809883a 	mov	r4,r19
   23128:	da001115 	stw	r8,68(sp)
   2312c:	db400f15 	stw	r13,60(sp)
   23130:	db800e15 	stw	r14,56(sp)
   23134:	002efb80 	call	2efb8 <__sprint_r>
   23138:	103c8a1e 	bne	r2,zero,22364 <___vfprintf_internal_r+0x43c>
   2313c:	d8c01c17 	ldw	r3,112(sp)
   23140:	da001117 	ldw	r8,68(sp)
   23144:	db400f17 	ldw	r13,60(sp)
   23148:	db800e17 	ldw	r14,56(sp)
   2314c:	dd802704 	addi	r22,sp,156
   23150:	003c5506 	br	222a8 <___vfprintf_internal_r+0x380>
   23154:	d9801a04 	addi	r6,sp,104
   23158:	900b883a 	mov	r5,r18
   2315c:	9809883a 	mov	r4,r19
   23160:	da000f15 	stw	r8,60(sp)
   23164:	db400e15 	stw	r13,56(sp)
   23168:	002efb80 	call	2efb8 <__sprint_r>
   2316c:	103c7d1e 	bne	r2,zero,22364 <___vfprintf_internal_r+0x43c>
   23170:	d8c01c17 	ldw	r3,112(sp)
   23174:	da000f17 	ldw	r8,60(sp)
   23178:	db400e17 	ldw	r13,56(sp)
   2317c:	dd802704 	addi	r22,sp,156
   23180:	003c5606 	br	222dc <___vfprintf_internal_r+0x3b4>
   23184:	dd401417 	ldw	r21,80(sp)
   23188:	057f380e 	bge	zero,r21,22e6c <___vfprintf_internal_r+0xf44>
   2318c:	d8800817 	ldw	r2,32(sp)
   23190:	d9000717 	ldw	r4,28(sp)
   23194:	102b883a 	mov	r21,r2
   23198:	2080b516 	blt	r4,r2,23470 <___vfprintf_internal_r+0x1548>
   2319c:	05400a0e 	bge	zero,r21,231c8 <___vfprintf_internal_r+0x12a0>
   231a0:	d8801b17 	ldw	r2,108(sp)
   231a4:	1d47883a 	add	r3,r3,r21
   231a8:	b4400015 	stw	r17,0(r22)
   231ac:	10800044 	addi	r2,r2,1
   231b0:	d8801b15 	stw	r2,108(sp)
   231b4:	b5400115 	stw	r21,4(r22)
   231b8:	d8c01c15 	stw	r3,112(sp)
   231bc:	10800208 	cmpgei	r2,r2,8
   231c0:	1002d31e 	bne	r2,zero,23d10 <___vfprintf_internal_r+0x1de8>
   231c4:	b5800204 	addi	r22,r22,8
   231c8:	a800b616 	blt	r21,zero,234a4 <___vfprintf_internal_r+0x157c>
   231cc:	d8800717 	ldw	r2,28(sp)
   231d0:	156bc83a 	sub	r21,r2,r21
   231d4:	0540c516 	blt	zero,r21,234ec <___vfprintf_internal_r+0x15c4>
   231d8:	dd401417 	ldw	r21,80(sp)
   231dc:	d8800817 	ldw	r2,32(sp)
   231e0:	a880a60e 	bge	r21,r2,2347c <___vfprintf_internal_r+0x1554>
   231e4:	d8800d17 	ldw	r2,52(sp)
   231e8:	d9000b17 	ldw	r4,44(sp)
   231ec:	b0800015 	stw	r2,0(r22)
   231f0:	d8801b17 	ldw	r2,108(sp)
   231f4:	1907883a 	add	r3,r3,r4
   231f8:	b1000115 	stw	r4,4(r22)
   231fc:	10800044 	addi	r2,r2,1
   23200:	d8801b15 	stw	r2,108(sp)
   23204:	d8c01c15 	stw	r3,112(sp)
   23208:	10800208 	cmpgei	r2,r2,8
   2320c:	1002ab1e 	bne	r2,zero,23cbc <___vfprintf_internal_r+0x1d94>
   23210:	b5800204 	addi	r22,r22,8
   23214:	d8800817 	ldw	r2,32(sp)
   23218:	d9000717 	ldw	r4,28(sp)
   2321c:	156bc83a 	sub	r21,r2,r21
   23220:	1139c83a 	sub	fp,r2,r4
   23224:	af00010e 	bge	r21,fp,2322c <___vfprintf_internal_r+0x1304>
   23228:	a839883a 	mov	fp,r21
   2322c:	07000c0e 	bge	zero,fp,23260 <___vfprintf_internal_r+0x1338>
   23230:	d8800717 	ldw	r2,28(sp)
   23234:	1f07883a 	add	r3,r3,fp
   23238:	b7000115 	stw	fp,4(r22)
   2323c:	8893883a 	add	r9,r17,r2
   23240:	d8801b17 	ldw	r2,108(sp)
   23244:	b2400015 	stw	r9,0(r22)
   23248:	d8c01c15 	stw	r3,112(sp)
   2324c:	10800044 	addi	r2,r2,1
   23250:	d8801b15 	stw	r2,108(sp)
   23254:	10800208 	cmpgei	r2,r2,8
   23258:	1002b81e 	bne	r2,zero,23d3c <___vfprintf_internal_r+0x1e14>
   2325c:	b5800204 	addi	r22,r22,8
   23260:	e005883a 	mov	r2,fp
   23264:	e000010e 	bge	fp,zero,2326c <___vfprintf_internal_r+0x1344>
   23268:	0005883a 	mov	r2,zero
   2326c:	a8abc83a 	sub	r21,r21,r2
   23270:	057c2b0e 	bge	zero,r21,22320 <___vfprintf_internal_r+0x3f8>
   23274:	01c00134 	movhi	r7,4
   23278:	a9000450 	cmplti	r4,r21,17
   2327c:	d8801b17 	ldw	r2,108(sp)
   23280:	39e4b904 	addi	r7,r7,-27932
   23284:	20018b1e 	bne	r4,zero,238b4 <___vfprintf_internal_r+0x198c>
   23288:	07000404 	movi	fp,16
   2328c:	3823883a 	mov	r17,r7
   23290:	00000406 	br	232a4 <___vfprintf_internal_r+0x137c>
   23294:	b5800204 	addi	r22,r22,8
   23298:	ad7ffc04 	addi	r21,r21,-16
   2329c:	a9000448 	cmpgei	r4,r21,17
   232a0:	20018326 	beq	r4,zero,238b0 <___vfprintf_internal_r+0x1988>
   232a4:	10800044 	addi	r2,r2,1
   232a8:	18c00404 	addi	r3,r3,16
   232ac:	b4400015 	stw	r17,0(r22)
   232b0:	b7000115 	stw	fp,4(r22)
   232b4:	d8c01c15 	stw	r3,112(sp)
   232b8:	d8801b15 	stw	r2,108(sp)
   232bc:	11000208 	cmpgei	r4,r2,8
   232c0:	203ff426 	beq	r4,zero,23294 <___vfprintf_internal_r+0x136c>
   232c4:	d9801a04 	addi	r6,sp,104
   232c8:	900b883a 	mov	r5,r18
   232cc:	9809883a 	mov	r4,r19
   232d0:	002efb80 	call	2efb8 <__sprint_r>
   232d4:	103c231e 	bne	r2,zero,22364 <___vfprintf_internal_r+0x43c>
   232d8:	d8c01c17 	ldw	r3,112(sp)
   232dc:	d8801b17 	ldw	r2,108(sp)
   232e0:	dd802704 	addi	r22,sp,156
   232e4:	003fec06 	br	23298 <___vfprintf_internal_r+0x1370>
   232e8:	d8800417 	ldw	r2,16(sp)
   232ec:	1080004c 	andi	r2,r2,1
   232f0:	103f151e 	bne	r2,zero,22f48 <___vfprintf_internal_r+0x1020>
   232f4:	00800044 	movi	r2,1
   232f8:	b0800115 	stw	r2,4(r22)
   232fc:	b4400015 	stw	r17,0(r22)
   23300:	d8c01c15 	stw	r3,112(sp)
   23304:	dd401b15 	stw	r21,108(sp)
   23308:	a8800210 	cmplti	r2,r21,8
   2330c:	103f341e 	bne	r2,zero,22fe0 <___vfprintf_internal_r+0x10b8>
   23310:	d9801a04 	addi	r6,sp,104
   23314:	900b883a 	mov	r5,r18
   23318:	9809883a 	mov	r4,r19
   2331c:	002efb80 	call	2efb8 <__sprint_r>
   23320:	103c101e 	bne	r2,zero,22364 <___vfprintf_internal_r+0x43c>
   23324:	d8c01c17 	ldw	r3,112(sp)
   23328:	dd401b17 	ldw	r21,108(sp)
   2332c:	df002704 	addi	fp,sp,156
   23330:	003f2b06 	br	22fe0 <___vfprintf_internal_r+0x10b8>
   23334:	4002391e 	bne	r8,zero,23c1c <___vfprintf_internal_r+0x1cf4>
   23338:	0011883a 	mov	r8,zero
   2333c:	002b883a 	mov	r21,zero
   23340:	dc402704 	addi	r17,sp,156
   23344:	003d0f06 	br	22784 <___vfprintf_internal_r+0x85c>
   23348:	05bf250e 	bge	zero,r22,22fe0 <___vfprintf_internal_r+0x10b8>
   2334c:	01c00134 	movhi	r7,4
   23350:	b0800450 	cmplti	r2,r22,17
   23354:	39e4b904 	addi	r7,r7,-27932
   23358:	1001761e 	bne	r2,zero,23934 <___vfprintf_internal_r+0x1a0c>
   2335c:	dc000715 	stw	r16,28(sp)
   23360:	04400404 	movi	r17,16
   23364:	3821883a 	mov	r16,r7
   23368:	00000406 	br	2337c <___vfprintf_internal_r+0x1454>
   2336c:	e7000204 	addi	fp,fp,8
   23370:	b5bffc04 	addi	r22,r22,-16
   23374:	b0800448 	cmpgei	r2,r22,17
   23378:	10016c26 	beq	r2,zero,2392c <___vfprintf_internal_r+0x1a04>
   2337c:	ad400044 	addi	r21,r21,1
   23380:	18c00404 	addi	r3,r3,16
   23384:	e4000015 	stw	r16,0(fp)
   23388:	e4400115 	stw	r17,4(fp)
   2338c:	d8c01c15 	stw	r3,112(sp)
   23390:	dd401b15 	stw	r21,108(sp)
   23394:	a8800208 	cmpgei	r2,r21,8
   23398:	103ff426 	beq	r2,zero,2336c <___vfprintf_internal_r+0x1444>
   2339c:	d9801a04 	addi	r6,sp,104
   233a0:	900b883a 	mov	r5,r18
   233a4:	9809883a 	mov	r4,r19
   233a8:	002efb80 	call	2efb8 <__sprint_r>
   233ac:	103bed1e 	bne	r2,zero,22364 <___vfprintf_internal_r+0x43c>
   233b0:	d8c01c17 	ldw	r3,112(sp)
   233b4:	dd401b17 	ldw	r21,108(sp)
   233b8:	df002704 	addi	fp,sp,156
   233bc:	003fec06 	br	23370 <___vfprintf_internal_r+0x1448>
   233c0:	d9801a04 	addi	r6,sp,104
   233c4:	900b883a 	mov	r5,r18
   233c8:	9809883a 	mov	r4,r19
   233cc:	002efb80 	call	2efb8 <__sprint_r>
   233d0:	103be41e 	bne	r2,zero,22364 <___vfprintf_internal_r+0x43c>
   233d4:	d8c01c17 	ldw	r3,112(sp)
   233d8:	dd802704 	addi	r22,sp,156
   233dc:	003bc306 	br	222ec <___vfprintf_internal_r+0x3c4>
   233e0:	002b883a 	mov	r21,zero
   233e4:	d8c00615 	stw	r3,24(sp)
   233e8:	003d7206 	br	229b4 <___vfprintf_internal_r+0xa8c>
   233ec:	a02bd7fa 	srai	r21,r20,31
   233f0:	d8c00615 	stw	r3,24(sp)
   233f4:	a805883a 	mov	r2,r21
   233f8:	003cd006 	br	2273c <___vfprintf_internal_r+0x814>
   233fc:	d8800417 	ldw	r2,16(sp)
   23400:	1080004c 	andi	r2,r2,1
   23404:	103bc626 	beq	r2,zero,22320 <___vfprintf_internal_r+0x3f8>
   23408:	003de506 	br	22ba0 <___vfprintf_internal_r+0xc78>
   2340c:	63000414 	ori	r12,r12,16
   23410:	003b1106 	br	22058 <___vfprintf_internal_r+0x130>
   23414:	bac00007 	ldb	r11,0(r23)
   23418:	d8800615 	stw	r2,24(sp)
   2341c:	003b0e06 	br	22058 <___vfprintf_internal_r+0x130>
   23420:	dc402704 	addi	r17,sp,156
   23424:	003cd706 	br	22784 <___vfprintf_internal_r+0x85c>
   23428:	18800017 	ldw	r2,0(r3)
   2342c:	d8800915 	stw	r2,36(sp)
   23430:	18800117 	ldw	r2,4(r3)
   23434:	d8800a15 	stw	r2,40(sp)
   23438:	003c3d06 	br	22530 <___vfprintf_internal_r+0x608>
   2343c:	00800c04 	movi	r2,48
   23440:	d8801385 	stb	r2,78(sp)
   23444:	df0013c5 	stb	fp,79(sp)
   23448:	63000094 	ori	r12,r12,2
   2344c:	00800084 	movi	r2,2
   23450:	003c0106 	br	22458 <___vfprintf_internal_r+0x530>
   23454:	d9400517 	ldw	r5,20(sp)
   23458:	20800017 	ldw	r2,0(r4)
   2345c:	d8c00615 	stw	r3,24(sp)
   23460:	2809d7fa 	srai	r4,r5,31
   23464:	11400015 	stw	r5,0(r2)
   23468:	11000115 	stw	r4,4(r2)
   2346c:	003ae206 	br	21ff8 <___vfprintf_internal_r+0xd0>
   23470:	202b883a 	mov	r21,r4
   23474:	057f4a16 	blt	zero,r21,231a0 <___vfprintf_internal_r+0x1278>
   23478:	003f5306 	br	231c8 <___vfprintf_internal_r+0x12a0>
   2347c:	d8800417 	ldw	r2,16(sp)
   23480:	1080004c 	andi	r2,r2,1
   23484:	103f571e 	bne	r2,zero,231e4 <___vfprintf_internal_r+0x12bc>
   23488:	d8800817 	ldw	r2,32(sp)
   2348c:	d9000717 	ldw	r4,28(sp)
   23490:	156bc83a 	sub	r21,r2,r21
   23494:	1139c83a 	sub	fp,r2,r4
   23498:	af3f710e 	bge	r21,fp,23260 <___vfprintf_internal_r+0x1338>
   2349c:	a839883a 	mov	fp,r21
   234a0:	003f6f06 	br	23260 <___vfprintf_internal_r+0x1338>
   234a4:	002b883a 	mov	r21,zero
   234a8:	003f4806 	br	231cc <___vfprintf_internal_r+0x12a4>
   234ac:	d9801a04 	addi	r6,sp,104
   234b0:	900b883a 	mov	r5,r18
   234b4:	9809883a 	mov	r4,r19
   234b8:	002efb80 	call	2efb8 <__sprint_r>
   234bc:	103ba91e 	bne	r2,zero,22364 <___vfprintf_internal_r+0x43c>
   234c0:	d8c01c17 	ldw	r3,112(sp)
   234c4:	dd802704 	addi	r22,sp,156
   234c8:	003dc106 	br	22bd0 <___vfprintf_internal_r+0xca8>
   234cc:	408001f0 	cmpltui	r2,r8,7
   234d0:	402b883a 	mov	r21,r8
   234d4:	1001a226 	beq	r2,zero,23b60 <___vfprintf_internal_r+0x1c38>
   234d8:	04400134 	movhi	r17,4
   234dc:	a829883a 	mov	r20,r21
   234e0:	d8c00615 	stw	r3,24(sp)
   234e4:	8c64b604 	addi	r17,r17,-27944
   234e8:	003b5406 	br	2223c <___vfprintf_internal_r+0x314>
   234ec:	01c00134 	movhi	r7,4
   234f0:	a9000450 	cmplti	r4,r21,17
   234f4:	d8801b17 	ldw	r2,108(sp)
   234f8:	39e4b904 	addi	r7,r7,-27932
   234fc:	20017d1e 	bne	r4,zero,23af4 <___vfprintf_internal_r+0x1bcc>
   23500:	dc000e15 	stw	r16,56(sp)
   23504:	07000404 	movi	fp,16
   23508:	3821883a 	mov	r16,r7
   2350c:	00000406 	br	23520 <___vfprintf_internal_r+0x15f8>
   23510:	b5800204 	addi	r22,r22,8
   23514:	ad7ffc04 	addi	r21,r21,-16
   23518:	a9000448 	cmpgei	r4,r21,17
   2351c:	20017326 	beq	r4,zero,23aec <___vfprintf_internal_r+0x1bc4>
   23520:	10800044 	addi	r2,r2,1
   23524:	18c00404 	addi	r3,r3,16
   23528:	b4000015 	stw	r16,0(r22)
   2352c:	b7000115 	stw	fp,4(r22)
   23530:	d8c01c15 	stw	r3,112(sp)
   23534:	d8801b15 	stw	r2,108(sp)
   23538:	11000208 	cmpgei	r4,r2,8
   2353c:	203ff426 	beq	r4,zero,23510 <___vfprintf_internal_r+0x15e8>
   23540:	d9801a04 	addi	r6,sp,104
   23544:	900b883a 	mov	r5,r18
   23548:	9809883a 	mov	r4,r19
   2354c:	002efb80 	call	2efb8 <__sprint_r>
   23550:	103b841e 	bne	r2,zero,22364 <___vfprintf_internal_r+0x43c>
   23554:	d8c01c17 	ldw	r3,112(sp)
   23558:	d8801b17 	ldw	r2,108(sp)
   2355c:	dd802704 	addi	r22,sp,156
   23560:	003fec06 	br	23514 <___vfprintf_internal_r+0x15ec>
   23564:	dc402704 	addi	r17,sp,156
   23568:	a805883a 	mov	r2,r21
   2356c:	dc000715 	stw	r16,28(sp)
   23570:	902b883a 	mov	r21,r18
   23574:	8821883a 	mov	r16,r17
   23578:	db000415 	stw	r12,16(sp)
   2357c:	a023883a 	mov	r17,r20
   23580:	da000e15 	stw	r8,56(sp)
   23584:	9829883a 	mov	r20,r19
   23588:	1025883a 	mov	r18,r2
   2358c:	6827883a 	mov	r19,r13
   23590:	8809883a 	mov	r4,r17
   23594:	900b883a 	mov	r5,r18
   23598:	01800284 	movi	r6,10
   2359c:	000f883a 	mov	r7,zero
   235a0:	003381c0 	call	3381c <__umoddi3>
   235a4:	10800c04 	addi	r2,r2,48
   235a8:	8809883a 	mov	r4,r17
   235ac:	900b883a 	mov	r5,r18
   235b0:	01800284 	movi	r6,10
   235b4:	000f883a 	mov	r7,zero
   235b8:	80bfffc5 	stb	r2,-1(r16)
   235bc:	003324c0 	call	3324c <__udivdi3>
   235c0:	900d883a 	mov	r6,r18
   235c4:	880f883a 	mov	r7,r17
   235c8:	843fffc4 	addi	r16,r16,-1
   235cc:	1023883a 	mov	r17,r2
   235d0:	1825883a 	mov	r18,r3
   235d4:	303fee1e 	bne	r6,zero,23590 <___vfprintf_internal_r+0x1668>
   235d8:	39c002a8 	cmpgeui	r7,r7,10
   235dc:	383fec1e 	bne	r7,zero,23590 <___vfprintf_internal_r+0x1668>
   235e0:	8023883a 	mov	r17,r16
   235e4:	d8802704 	addi	r2,sp,156
   235e8:	981b883a 	mov	r13,r19
   235ec:	a825883a 	mov	r18,r21
   235f0:	dc000717 	ldw	r16,28(sp)
   235f4:	da000e17 	ldw	r8,56(sp)
   235f8:	a027883a 	mov	r19,r20
   235fc:	146bc83a 	sub	r21,r2,r17
   23600:	003c6006 	br	22784 <___vfprintf_internal_r+0x85c>
   23604:	d8800617 	ldw	r2,24(sp)
   23608:	10800017 	ldw	r2,0(r2)
   2360c:	d8c00615 	stw	r3,24(sp)
   23610:	d8c00517 	ldw	r3,20(sp)
   23614:	10c00015 	stw	r3,0(r2)
   23618:	003a7706 	br	21ff8 <___vfprintf_internal_r+0xd0>
   2361c:	d9801a04 	addi	r6,sp,104
   23620:	900b883a 	mov	r5,r18
   23624:	9809883a 	mov	r4,r19
   23628:	002efb80 	call	2efb8 <__sprint_r>
   2362c:	103b4d1e 	bne	r2,zero,22364 <___vfprintf_internal_r+0x43c>
   23630:	d8c01c17 	ldw	r3,112(sp)
   23634:	dd401b17 	ldw	r21,108(sp)
   23638:	df002704 	addi	fp,sp,156
   2363c:	003e4906 	br	22f64 <___vfprintf_internal_r+0x103c>
   23640:	d9801a04 	addi	r6,sp,104
   23644:	900b883a 	mov	r5,r18
   23648:	9809883a 	mov	r4,r19
   2364c:	002efb80 	call	2efb8 <__sprint_r>
   23650:	103b441e 	bne	r2,zero,22364 <___vfprintf_internal_r+0x43c>
   23654:	d8c01c17 	ldw	r3,112(sp)
   23658:	dd401b17 	ldw	r21,108(sp)
   2365c:	df002704 	addi	fp,sp,156
   23660:	003e4b06 	br	22f90 <___vfprintf_internal_r+0x1068>
   23664:	d9801a04 	addi	r6,sp,104
   23668:	900b883a 	mov	r5,r18
   2366c:	9809883a 	mov	r4,r19
   23670:	da001115 	stw	r8,68(sp)
   23674:	db400f15 	stw	r13,60(sp)
   23678:	db800e15 	stw	r14,56(sp)
   2367c:	002efb80 	call	2efb8 <__sprint_r>
   23680:	103b381e 	bne	r2,zero,22364 <___vfprintf_internal_r+0x43c>
   23684:	d8c01c17 	ldw	r3,112(sp)
   23688:	da001117 	ldw	r8,68(sp)
   2368c:	db400f17 	ldw	r13,60(sp)
   23690:	db800e17 	ldw	r14,56(sp)
   23694:	dd802704 	addi	r22,sp,156
   23698:	003af506 	br	22270 <___vfprintf_internal_r+0x348>
   2369c:	8825883a 	mov	r18,r17
   236a0:	003b3006 	br	22364 <___vfprintf_internal_r+0x43c>
   236a4:	d9000917 	ldw	r4,36(sp)
   236a8:	d9400a17 	ldw	r5,40(sp)
   236ac:	da000615 	stw	r8,24(sp)
   236b0:	200d883a 	mov	r6,r4
   236b4:	280f883a 	mov	r7,r5
   236b8:	db000415 	stw	r12,16(sp)
   236bc:	003642c0 	call	3642c <__unorddf2>
   236c0:	db000417 	ldw	r12,16(sp)
   236c4:	da000617 	ldw	r8,24(sp)
   236c8:	1001ec1e 	bne	r2,zero,23e7c <___vfprintf_internal_r+0x1f54>
   236cc:	057ff7c4 	movi	r21,-33
   236d0:	40bfffe0 	cmpeqi	r2,r8,-1
   236d4:	e56a703a 	and	r21,fp,r21
   236d8:	1001961e 	bne	r2,zero,23d34 <___vfprintf_internal_r+0x1e0c>
   236dc:	a88011d8 	cmpnei	r2,r21,71
   236e0:	10013826 	beq	r2,zero,23bc4 <___vfprintf_internal_r+0x1c9c>
   236e4:	60804014 	ori	r2,r12,256
   236e8:	d8800415 	stw	r2,16(sp)
   236ec:	d8800a17 	ldw	r2,40(sp)
   236f0:	10011716 	blt	r2,zero,23b50 <___vfprintf_internal_r+0x1c28>
   236f4:	dd000a17 	ldw	r20,40(sp)
   236f8:	d8000605 	stb	zero,24(sp)
   236fc:	e08019a0 	cmpeqi	r2,fp,102
   23700:	d8800f15 	stw	r2,60(sp)
   23704:	1000bb1e 	bne	r2,zero,239f4 <___vfprintf_internal_r+0x1acc>
   23708:	e08011a0 	cmpeqi	r2,fp,70
   2370c:	1000b91e 	bne	r2,zero,239f4 <___vfprintf_internal_r+0x1acc>
   23710:	a8801158 	cmpnei	r2,r21,69
   23714:	10014326 	beq	r2,zero,23c24 <___vfprintf_internal_r+0x1cfc>
   23718:	d8801804 	addi	r2,sp,96
   2371c:	d8800315 	stw	r2,12(sp)
   23720:	d9400917 	ldw	r5,36(sp)
   23724:	d8801504 	addi	r2,sp,84
   23728:	d8800215 	stw	r2,8(sp)
   2372c:	d8801404 	addi	r2,sp,80
   23730:	da000015 	stw	r8,0(sp)
   23734:	9809883a 	mov	r4,r19
   23738:	d8800115 	stw	r2,4(sp)
   2373c:	01c00084 	movi	r7,2
   23740:	a00d883a 	mov	r6,r20
   23744:	db000815 	stw	r12,32(sp)
   23748:	da000715 	stw	r8,28(sp)
   2374c:	0025df80 	call	25df8 <_dtoa_r>
   23750:	da000717 	ldw	r8,28(sp)
   23754:	e10019d8 	cmpnei	r4,fp,103
   23758:	db000817 	ldw	r12,32(sp)
   2375c:	1023883a 	mov	r17,r2
   23760:	4007883a 	mov	r3,r8
   23764:	2001431e 	bne	r4,zero,23c74 <___vfprintf_internal_r+0x1d4c>
   23768:	6080004c 	andi	r2,r12,1
   2376c:	1001431e 	bne	r2,zero,23c7c <___vfprintf_internal_r+0x1d54>
   23770:	d8801417 	ldw	r2,80(sp)
   23774:	ad4011e0 	cmpeqi	r21,r21,71
   23778:	d8800715 	stw	r2,28(sp)
   2377c:	d8801817 	ldw	r2,96(sp)
   23780:	1445c83a 	sub	r2,r2,r17
   23784:	d8800815 	stw	r2,32(sp)
   23788:	a8000526 	beq	r21,zero,237a0 <___vfprintf_internal_r+0x1878>
   2378c:	d8c00717 	ldw	r3,28(sp)
   23790:	18bfff50 	cmplti	r2,r3,-3
   23794:	1000011e 	bne	r2,zero,2379c <___vfprintf_internal_r+0x1874>
   23798:	40c1510e 	bge	r8,r3,23ce0 <___vfprintf_internal_r+0x1db8>
   2379c:	e73fff84 	addi	fp,fp,-2
   237a0:	d8c00717 	ldw	r3,28(sp)
   237a4:	e009883a 	mov	r4,fp
   237a8:	18bfffc4 	addi	r2,r3,-1
   237ac:	10018516 	blt	r2,zero,23dc4 <___vfprintf_internal_r+0x1e9c>
   237b0:	102b883a 	mov	r21,r2
   237b4:	00c00ac4 	movi	r3,43
   237b8:	d8801415 	stw	r2,80(sp)
   237bc:	d9001645 	stb	r4,89(sp)
   237c0:	d8c01685 	stb	r3,90(sp)
   237c4:	a8800290 	cmplti	r2,r21,10
   237c8:	1001771e 	bne	r2,zero,23da8 <___vfprintf_internal_r+0x1e80>
   237cc:	d98019c4 	addi	r6,sp,103
   237d0:	9029883a 	mov	r20,r18
   237d4:	dc400715 	stw	r17,28(sp)
   237d8:	8025883a 	mov	r18,r16
   237dc:	db000f15 	stw	r12,60(sp)
   237e0:	3021883a 	mov	r16,r6
   237e4:	a809883a 	mov	r4,r21
   237e8:	01400284 	movi	r5,10
   237ec:	0020b040 	call	20b04 <__modsi3>
   237f0:	10800c04 	addi	r2,r2,48
   237f4:	a809883a 	mov	r4,r21
   237f8:	80bfffc5 	stb	r2,-1(r16)
   237fc:	01400284 	movi	r5,10
   23800:	0020a840 	call	20a84 <__divsi3>
   23804:	a9001908 	cmpgei	r4,r21,100
   23808:	8023883a 	mov	r17,r16
   2380c:	102b883a 	mov	r21,r2
   23810:	843fffc4 	addi	r16,r16,-1
   23814:	203ff31e 	bne	r4,zero,237e4 <___vfprintf_internal_r+0x18bc>
   23818:	800d883a 	mov	r6,r16
   2381c:	11000c04 	addi	r4,r2,48
   23820:	9021883a 	mov	r16,r18
   23824:	a025883a 	mov	r18,r20
   23828:	8829883a 	mov	r20,r17
   2382c:	a0bfff84 	addi	r2,r20,-2
   23830:	313fffc5 	stb	r4,-1(r6)
   23834:	d8c019c4 	addi	r3,sp,103
   23838:	db000f17 	ldw	r12,60(sp)
   2383c:	dc400717 	ldw	r17,28(sp)
   23840:	10c1be2e 	bgeu	r2,r3,23f3c <___vfprintf_internal_r+0x2014>
   23844:	d8c016c4 	addi	r3,sp,91
   23848:	00000106 	br	23850 <___vfprintf_internal_r+0x1928>
   2384c:	11000003 	ldbu	r4,0(r2)
   23850:	19000005 	stb	r4,0(r3)
   23854:	10800044 	addi	r2,r2,1
   23858:	d90019c4 	addi	r4,sp,103
   2385c:	18c00044 	addi	r3,r3,1
   23860:	113ffa1e 	bne	r2,r4,2384c <___vfprintf_internal_r+0x1924>
   23864:	d8801a44 	addi	r2,sp,105
   23868:	d8c016c4 	addi	r3,sp,91
   2386c:	1505c83a 	sub	r2,r2,r20
   23870:	1885883a 	add	r2,r3,r2
   23874:	d8c01644 	addi	r3,sp,89
   23878:	10c5c83a 	sub	r2,r2,r3
   2387c:	d8801015 	stw	r2,64(sp)
   23880:	d8c00817 	ldw	r3,32(sp)
   23884:	d9001017 	ldw	r4,64(sp)
   23888:	18800088 	cmpgei	r2,r3,2
   2388c:	192b883a 	add	r21,r3,r4
   23890:	10015326 	beq	r2,zero,23de0 <___vfprintf_internal_r+0x1eb8>
   23894:	d8800b17 	ldw	r2,44(sp)
   23898:	a8ab883a 	add	r21,r21,r2
   2389c:	a829883a 	mov	r20,r21
   238a0:	a800010e 	bge	r21,zero,238a8 <___vfprintf_internal_r+0x1980>
   238a4:	0029883a 	mov	r20,zero
   238a8:	d8000715 	stw	zero,28(sp)
   238ac:	00008406 	br	23ac0 <___vfprintf_internal_r+0x1b98>
   238b0:	880f883a 	mov	r7,r17
   238b4:	10800044 	addi	r2,r2,1
   238b8:	1d47883a 	add	r3,r3,r21
   238bc:	b1c00015 	stw	r7,0(r22)
   238c0:	003a9106 	br	22308 <___vfprintf_internal_r+0x3e0>
   238c4:	d9801a04 	addi	r6,sp,104
   238c8:	900b883a 	mov	r5,r18
   238cc:	9809883a 	mov	r4,r19
   238d0:	002efb80 	call	2efb8 <__sprint_r>
   238d4:	103aa31e 	bne	r2,zero,22364 <___vfprintf_internal_r+0x43c>
   238d8:	d8c01c17 	ldw	r3,112(sp)
   238dc:	dd802704 	addi	r22,sp,156
   238e0:	003cac06 	br	22b94 <___vfprintf_internal_r+0xc6c>
   238e4:	d9801a04 	addi	r6,sp,104
   238e8:	900b883a 	mov	r5,r18
   238ec:	9809883a 	mov	r4,r19
   238f0:	da000e15 	stw	r8,56(sp)
   238f4:	002efb80 	call	2efb8 <__sprint_r>
   238f8:	103a9a1e 	bne	r2,zero,22364 <___vfprintf_internal_r+0x43c>
   238fc:	d8c01c17 	ldw	r3,112(sp)
   23900:	da000e17 	ldw	r8,56(sp)
   23904:	dd802704 	addi	r22,sp,156
   23908:	003a7606 	br	222e4 <___vfprintf_internal_r+0x3bc>
   2390c:	8809883a 	mov	r4,r17
   23910:	db000415 	stw	r12,16(sp)
   23914:	d8c00615 	stw	r3,24(sp)
   23918:	0021e900 	call	21e90 <strlen>
   2391c:	db000417 	ldw	r12,16(sp)
   23920:	102b883a 	mov	r21,r2
   23924:	1029883a 	mov	r20,r2
   23928:	003a4406 	br	2223c <___vfprintf_internal_r+0x314>
   2392c:	800f883a 	mov	r7,r16
   23930:	dc000717 	ldw	r16,28(sp)
   23934:	ad400044 	addi	r21,r21,1
   23938:	1d87883a 	add	r3,r3,r22
   2393c:	e1c00015 	stw	r7,0(fp)
   23940:	003da106 	br	22fc8 <___vfprintf_internal_r+0x10a0>
   23944:	d8800d17 	ldw	r2,52(sp)
   23948:	d9000b17 	ldw	r4,44(sp)
   2394c:	b0800015 	stw	r2,0(r22)
   23950:	d8801b17 	ldw	r2,108(sp)
   23954:	20c7883a 	add	r3,r4,r3
   23958:	b1000115 	stw	r4,4(r22)
   2395c:	10800044 	addi	r2,r2,1
   23960:	d8c01c15 	stw	r3,112(sp)
   23964:	d8801b15 	stw	r2,108(sp)
   23968:	11000208 	cmpgei	r4,r2,8
   2396c:	2000981e 	bne	r4,zero,23bd0 <___vfprintf_internal_r+0x1ca8>
   23970:	b5800204 	addi	r22,r22,8
   23974:	a83d5c0e 	bge	r21,zero,22ee8 <___vfprintf_internal_r+0xfc0>
   23978:	01c00134 	movhi	r7,4
   2397c:	a93ffc08 	cmpgei	r4,r21,-16
   23980:	39e4b904 	addi	r7,r7,-27932
   23984:	056bc83a 	sub	r21,zero,r21
   23988:	20011f1e 	bne	r4,zero,23e08 <___vfprintf_internal_r+0x1ee0>
   2398c:	dc000715 	stw	r16,28(sp)
   23990:	07000404 	movi	fp,16
   23994:	9021883a 	mov	r16,r18
   23998:	3825883a 	mov	r18,r7
   2399c:	00000406 	br	239b0 <___vfprintf_internal_r+0x1a88>
   239a0:	b5800204 	addi	r22,r22,8
   239a4:	ad7ffc04 	addi	r21,r21,-16
   239a8:	a9800448 	cmpgei	r6,r21,17
   239ac:	30011326 	beq	r6,zero,23dfc <___vfprintf_internal_r+0x1ed4>
   239b0:	10800044 	addi	r2,r2,1
   239b4:	18c00404 	addi	r3,r3,16
   239b8:	b4800015 	stw	r18,0(r22)
   239bc:	b7000115 	stw	fp,4(r22)
   239c0:	d8c01c15 	stw	r3,112(sp)
   239c4:	d8801b15 	stw	r2,108(sp)
   239c8:	11800208 	cmpgei	r6,r2,8
   239cc:	303ff426 	beq	r6,zero,239a0 <___vfprintf_internal_r+0x1a78>
   239d0:	d9801a04 	addi	r6,sp,104
   239d4:	800b883a 	mov	r5,r16
   239d8:	9809883a 	mov	r4,r19
   239dc:	002efb80 	call	2efb8 <__sprint_r>
   239e0:	1001391e 	bne	r2,zero,23ec8 <___vfprintf_internal_r+0x1fa0>
   239e4:	d8c01c17 	ldw	r3,112(sp)
   239e8:	d8801b17 	ldw	r2,108(sp)
   239ec:	dd802704 	addi	r22,sp,156
   239f0:	003fec06 	br	239a4 <___vfprintf_internal_r+0x1a7c>
   239f4:	d8801804 	addi	r2,sp,96
   239f8:	d8800315 	stw	r2,12(sp)
   239fc:	d9400917 	ldw	r5,36(sp)
   23a00:	d8801504 	addi	r2,sp,84
   23a04:	d8800215 	stw	r2,8(sp)
   23a08:	d8801404 	addi	r2,sp,80
   23a0c:	da000015 	stw	r8,0(sp)
   23a10:	d8800115 	stw	r2,4(sp)
   23a14:	01c000c4 	movi	r7,3
   23a18:	a00d883a 	mov	r6,r20
   23a1c:	9809883a 	mov	r4,r19
   23a20:	db000815 	stw	r12,32(sp)
   23a24:	da000715 	stw	r8,28(sp)
   23a28:	0025df80 	call	25df8 <_dtoa_r>
   23a2c:	da000717 	ldw	r8,28(sp)
   23a30:	1023883a 	mov	r17,r2
   23a34:	db000817 	ldw	r12,32(sp)
   23a38:	1207883a 	add	r3,r2,r8
   23a3c:	88800007 	ldb	r2,0(r17)
   23a40:	10800c20 	cmpeqi	r2,r2,48
   23a44:	10004f1e 	bne	r2,zero,23b84 <___vfprintf_internal_r+0x1c5c>
   23a48:	d8801417 	ldw	r2,80(sp)
   23a4c:	1893883a 	add	r9,r3,r2
   23a50:	d9000917 	ldw	r4,36(sp)
   23a54:	000d883a 	mov	r6,zero
   23a58:	000f883a 	mov	r7,zero
   23a5c:	a00b883a 	mov	r5,r20
   23a60:	da401115 	stw	r9,68(sp)
   23a64:	da000815 	stw	r8,32(sp)
   23a68:	db000715 	stw	r12,28(sp)
   23a6c:	00350c00 	call	350c0 <__eqdf2>
   23a70:	db000717 	ldw	r12,28(sp)
   23a74:	da000817 	ldw	r8,32(sp)
   23a78:	da401117 	ldw	r9,68(sp)
   23a7c:	1000811e 	bne	r2,zero,23c84 <___vfprintf_internal_r+0x1d5c>
   23a80:	4805883a 	mov	r2,r9
   23a84:	d8c01417 	ldw	r3,80(sp)
   23a88:	1445c83a 	sub	r2,r2,r17
   23a8c:	ad4011d8 	cmpnei	r21,r21,71
   23a90:	d8c00715 	stw	r3,28(sp)
   23a94:	d8800815 	stw	r2,32(sp)
   23a98:	a83f3c26 	beq	r21,zero,2378c <___vfprintf_internal_r+0x1864>
   23a9c:	d8800f17 	ldw	r2,60(sp)
   23aa0:	103f3f26 	beq	r2,zero,237a0 <___vfprintf_internal_r+0x1878>
   23aa4:	d8c00717 	ldw	r3,28(sp)
   23aa8:	6080004c 	andi	r2,r12,1
   23aac:	1204b03a 	or	r2,r2,r8
   23ab0:	00c10e0e 	bge	zero,r3,23eec <___vfprintf_internal_r+0x1fc4>
   23ab4:	1000ff1e 	bne	r2,zero,23eb4 <___vfprintf_internal_r+0x1f8c>
   23ab8:	dd400717 	ldw	r21,28(sp)
   23abc:	a829883a 	mov	r20,r21
   23ac0:	d8800607 	ldb	r2,24(sp)
   23ac4:	10007826 	beq	r2,zero,23ca8 <___vfprintf_internal_r+0x1d80>
   23ac8:	00800b44 	movi	r2,45
   23acc:	d8801345 	stb	r2,77(sp)
   23ad0:	d8800e17 	ldw	r2,56(sp)
   23ad4:	0011883a 	mov	r8,zero
   23ad8:	d8800615 	stw	r2,24(sp)
   23adc:	003b3106 	br	227a4 <___vfprintf_internal_r+0x87c>
   23ae0:	04400134 	movhi	r17,4
   23ae4:	8c64a804 	addi	r17,r17,-28000
   23ae8:	003ab606 	br	225c4 <___vfprintf_internal_r+0x69c>
   23aec:	800f883a 	mov	r7,r16
   23af0:	dc000e17 	ldw	r16,56(sp)
   23af4:	10800044 	addi	r2,r2,1
   23af8:	1d47883a 	add	r3,r3,r21
   23afc:	d8801b15 	stw	r2,108(sp)
   23b00:	b1c00015 	stw	r7,0(r22)
   23b04:	b5400115 	stw	r21,4(r22)
   23b08:	d8c01c15 	stw	r3,112(sp)
   23b0c:	10800208 	cmpgei	r2,r2,8
   23b10:	10003a1e 	bne	r2,zero,23bfc <___vfprintf_internal_r+0x1cd4>
   23b14:	b5800204 	addi	r22,r22,8
   23b18:	003daf06 	br	231d8 <___vfprintf_internal_r+0x12b0>
   23b1c:	00800b44 	movi	r2,45
   23b20:	d8801345 	stb	r2,77(sp)
   23b24:	03400b44 	movi	r13,45
   23b28:	003aa206 	br	225b4 <___vfprintf_internal_r+0x68c>
   23b2c:	d9801a04 	addi	r6,sp,104
   23b30:	900b883a 	mov	r5,r18
   23b34:	9809883a 	mov	r4,r19
   23b38:	002efb80 	call	2efb8 <__sprint_r>
   23b3c:	103a091e 	bne	r2,zero,22364 <___vfprintf_internal_r+0x43c>
   23b40:	dd401417 	ldw	r21,80(sp)
   23b44:	d8c01c17 	ldw	r3,112(sp)
   23b48:	dd802704 	addi	r22,sp,156
   23b4c:	003cd406 	br	22ea0 <___vfprintf_internal_r+0xf78>
   23b50:	1520003c 	xorhi	r20,r2,32768
   23b54:	00800b44 	movi	r2,45
   23b58:	d8800605 	stb	r2,24(sp)
   23b5c:	003ee706 	br	236fc <___vfprintf_internal_r+0x17d4>
   23b60:	05400184 	movi	r21,6
   23b64:	003e5c06 	br	234d8 <___vfprintf_internal_r+0x15b0>
   23b68:	d9801a04 	addi	r6,sp,104
   23b6c:	900b883a 	mov	r5,r18
   23b70:	9809883a 	mov	r4,r19
   23b74:	002efb80 	call	2efb8 <__sprint_r>
   23b78:	0039fa06 	br	22364 <___vfprintf_internal_r+0x43c>
   23b7c:	d9401345 	stb	r5,77(sp)
   23b80:	0039a806 	br	22224 <___vfprintf_internal_r+0x2fc>
   23b84:	d9000917 	ldw	r4,36(sp)
   23b88:	000d883a 	mov	r6,zero
   23b8c:	000f883a 	mov	r7,zero
   23b90:	a00b883a 	mov	r5,r20
   23b94:	d8c01115 	stw	r3,68(sp)
   23b98:	da000815 	stw	r8,32(sp)
   23b9c:	db000715 	stw	r12,28(sp)
   23ba0:	00350c00 	call	350c0 <__eqdf2>
   23ba4:	db000717 	ldw	r12,28(sp)
   23ba8:	da000817 	ldw	r8,32(sp)
   23bac:	d8c01117 	ldw	r3,68(sp)
   23bb0:	103fa526 	beq	r2,zero,23a48 <___vfprintf_internal_r+0x1b20>
   23bb4:	00800044 	movi	r2,1
   23bb8:	1205c83a 	sub	r2,r2,r8
   23bbc:	d8801415 	stw	r2,80(sp)
   23bc0:	003fa206 	br	23a4c <___vfprintf_internal_r+0x1b24>
   23bc4:	403ec71e 	bne	r8,zero,236e4 <___vfprintf_internal_r+0x17bc>
   23bc8:	02000044 	movi	r8,1
   23bcc:	003ec506 	br	236e4 <___vfprintf_internal_r+0x17bc>
   23bd0:	d9801a04 	addi	r6,sp,104
   23bd4:	900b883a 	mov	r5,r18
   23bd8:	9809883a 	mov	r4,r19
   23bdc:	002efb80 	call	2efb8 <__sprint_r>
   23be0:	1039e01e 	bne	r2,zero,22364 <___vfprintf_internal_r+0x43c>
   23be4:	dd401417 	ldw	r21,80(sp)
   23be8:	d8c01c17 	ldw	r3,112(sp)
   23bec:	d8801b17 	ldw	r2,108(sp)
   23bf0:	dd802704 	addi	r22,sp,156
   23bf4:	a83cbc0e 	bge	r21,zero,22ee8 <___vfprintf_internal_r+0xfc0>
   23bf8:	003f5f06 	br	23978 <___vfprintf_internal_r+0x1a50>
   23bfc:	d9801a04 	addi	r6,sp,104
   23c00:	900b883a 	mov	r5,r18
   23c04:	9809883a 	mov	r4,r19
   23c08:	002efb80 	call	2efb8 <__sprint_r>
   23c0c:	1039d51e 	bne	r2,zero,22364 <___vfprintf_internal_r+0x43c>
   23c10:	d8c01c17 	ldw	r3,112(sp)
   23c14:	dd802704 	addi	r22,sp,156
   23c18:	003d6f06 	br	231d8 <___vfprintf_internal_r+0x12b0>
   23c1c:	db000417 	ldw	r12,16(sp)
   23c20:	003ad306 	br	22770 <___vfprintf_internal_r+0x848>
   23c24:	d8801804 	addi	r2,sp,96
   23c28:	d8800315 	stw	r2,12(sp)
   23c2c:	d9400917 	ldw	r5,36(sp)
   23c30:	d8801504 	addi	r2,sp,84
   23c34:	40c00044 	addi	r3,r8,1
   23c38:	d8800215 	stw	r2,8(sp)
   23c3c:	d8801404 	addi	r2,sp,80
   23c40:	d8c00015 	stw	r3,0(sp)
   23c44:	d8800115 	stw	r2,4(sp)
   23c48:	01c00084 	movi	r7,2
   23c4c:	a00d883a 	mov	r6,r20
   23c50:	9809883a 	mov	r4,r19
   23c54:	db001115 	stw	r12,68(sp)
   23c58:	da000815 	stw	r8,32(sp)
   23c5c:	d8c00715 	stw	r3,28(sp)
   23c60:	0025df80 	call	25df8 <_dtoa_r>
   23c64:	d8c00717 	ldw	r3,28(sp)
   23c68:	da000817 	ldw	r8,32(sp)
   23c6c:	db001117 	ldw	r12,68(sp)
   23c70:	1023883a 	mov	r17,r2
   23c74:	e08011d8 	cmpnei	r2,fp,71
   23c78:	103ebb26 	beq	r2,zero,23768 <___vfprintf_internal_r+0x1840>
   23c7c:	88d3883a 	add	r9,r17,r3
   23c80:	003f7306 	br	23a50 <___vfprintf_internal_r+0x1b28>
   23c84:	d8801817 	ldw	r2,96(sp)
   23c88:	127f7e2e 	bgeu	r2,r9,23a84 <___vfprintf_internal_r+0x1b5c>
   23c8c:	01000c04 	movi	r4,48
   23c90:	10c00044 	addi	r3,r2,1
   23c94:	d8c01815 	stw	r3,96(sp)
   23c98:	11000005 	stb	r4,0(r2)
   23c9c:	d8801817 	ldw	r2,96(sp)
   23ca0:	127ffb36 	bltu	r2,r9,23c90 <___vfprintf_internal_r+0x1d68>
   23ca4:	003f7706 	br	23a84 <___vfprintf_internal_r+0x1b5c>
   23ca8:	d8800e17 	ldw	r2,56(sp)
   23cac:	db401343 	ldbu	r13,77(sp)
   23cb0:	0011883a 	mov	r8,zero
   23cb4:	d8800615 	stw	r2,24(sp)
   23cb8:	003ab606 	br	22794 <___vfprintf_internal_r+0x86c>
   23cbc:	d9801a04 	addi	r6,sp,104
   23cc0:	900b883a 	mov	r5,r18
   23cc4:	9809883a 	mov	r4,r19
   23cc8:	002efb80 	call	2efb8 <__sprint_r>
   23ccc:	1039a51e 	bne	r2,zero,22364 <___vfprintf_internal_r+0x43c>
   23cd0:	dd401417 	ldw	r21,80(sp)
   23cd4:	d8c01c17 	ldw	r3,112(sp)
   23cd8:	dd802704 	addi	r22,sp,156
   23cdc:	003d4d06 	br	23214 <___vfprintf_internal_r+0x12ec>
   23ce0:	d8800717 	ldw	r2,28(sp)
   23ce4:	d8c00817 	ldw	r3,32(sp)
   23ce8:	10c05816 	blt	r2,r3,23e4c <___vfprintf_internal_r+0x1f24>
   23cec:	6300004c 	andi	r12,r12,1
   23cf0:	d8800717 	ldw	r2,28(sp)
   23cf4:	6000691e 	bne	r12,zero,23e9c <___vfprintf_internal_r+0x1f74>
   23cf8:	1029883a 	mov	r20,r2
   23cfc:	1000010e 	bge	r2,zero,23d04 <___vfprintf_internal_r+0x1ddc>
   23d00:	0029883a 	mov	r20,zero
   23d04:	dd400717 	ldw	r21,28(sp)
   23d08:	070019c4 	movi	fp,103
   23d0c:	003f6c06 	br	23ac0 <___vfprintf_internal_r+0x1b98>
   23d10:	d9801a04 	addi	r6,sp,104
   23d14:	900b883a 	mov	r5,r18
   23d18:	9809883a 	mov	r4,r19
   23d1c:	002efb80 	call	2efb8 <__sprint_r>
   23d20:	1039901e 	bne	r2,zero,22364 <___vfprintf_internal_r+0x43c>
   23d24:	d8c01c17 	ldw	r3,112(sp)
   23d28:	dd802704 	addi	r22,sp,156
   23d2c:	a83d270e 	bge	r21,zero,231cc <___vfprintf_internal_r+0x12a4>
   23d30:	003ddc06 	br	234a4 <___vfprintf_internal_r+0x157c>
   23d34:	02000184 	movi	r8,6
   23d38:	003e6a06 	br	236e4 <___vfprintf_internal_r+0x17bc>
   23d3c:	d9801a04 	addi	r6,sp,104
   23d40:	900b883a 	mov	r5,r18
   23d44:	9809883a 	mov	r4,r19
   23d48:	002efb80 	call	2efb8 <__sprint_r>
   23d4c:	1039851e 	bne	r2,zero,22364 <___vfprintf_internal_r+0x43c>
   23d50:	dd401417 	ldw	r21,80(sp)
   23d54:	d8800817 	ldw	r2,32(sp)
   23d58:	d8c01c17 	ldw	r3,112(sp)
   23d5c:	dd802704 	addi	r22,sp,156
   23d60:	156bc83a 	sub	r21,r2,r21
   23d64:	003d3e06 	br	23260 <___vfprintf_internal_r+0x1338>
   23d68:	4029883a 	mov	r20,r8
   23d6c:	d8c00615 	stw	r3,24(sp)
   23d70:	402b883a 	mov	r21,r8
   23d74:	00393106 	br	2223c <___vfprintf_internal_r+0x314>
   23d78:	d9401345 	stb	r5,77(sp)
   23d7c:	003aa906 	br	22824 <___vfprintf_internal_r+0x8fc>
   23d80:	d9401345 	stb	r5,77(sp)
   23d84:	003b5c06 	br	22af8 <___vfprintf_internal_r+0xbd0>
   23d88:	d9401345 	stb	r5,77(sp)
   23d8c:	003b3a06 	br	22a78 <___vfprintf_internal_r+0xb50>
   23d90:	d9401345 	stb	r5,77(sp)
   23d94:	0039dc06 	br	22508 <___vfprintf_internal_r+0x5e0>
   23d98:	d9401345 	stb	r5,77(sp)
   23d9c:	003a5f06 	br	2271c <___vfprintf_internal_r+0x7f4>
   23da0:	d9401345 	stb	r5,77(sp)
   23da4:	003af906 	br	2298c <___vfprintf_internal_r+0xa64>
   23da8:	00800c04 	movi	r2,48
   23dac:	ad400c04 	addi	r21,r21,48
   23db0:	d88016c5 	stb	r2,91(sp)
   23db4:	00800104 	movi	r2,4
   23db8:	dd401705 	stb	r21,92(sp)
   23dbc:	d8801015 	stw	r2,64(sp)
   23dc0:	003eaf06 	br	23880 <___vfprintf_internal_r+0x1958>
   23dc4:	05400044 	movi	r21,1
   23dc8:	a8ebc83a 	sub	r21,r21,r3
   23dcc:	00c00b44 	movi	r3,45
   23dd0:	003e7906 	br	237b8 <___vfprintf_internal_r+0x1890>
   23dd4:	00bfffc4 	movi	r2,-1
   23dd8:	d8800515 	stw	r2,20(sp)
   23ddc:	00396406 	br	22370 <___vfprintf_internal_r+0x448>
   23de0:	6080004c 	andi	r2,r12,1
   23de4:	d8800715 	stw	r2,28(sp)
   23de8:	103eaa1e 	bne	r2,zero,23894 <___vfprintf_internal_r+0x196c>
   23dec:	a829883a 	mov	r20,r21
   23df0:	a83f330e 	bge	r21,zero,23ac0 <___vfprintf_internal_r+0x1b98>
   23df4:	0029883a 	mov	r20,zero
   23df8:	003f3106 	br	23ac0 <___vfprintf_internal_r+0x1b98>
   23dfc:	900f883a 	mov	r7,r18
   23e00:	8025883a 	mov	r18,r16
   23e04:	dc000717 	ldw	r16,28(sp)
   23e08:	10800044 	addi	r2,r2,1
   23e0c:	1d47883a 	add	r3,r3,r21
   23e10:	b1c00015 	stw	r7,0(r22)
   23e14:	b5400115 	stw	r21,4(r22)
   23e18:	d8c01c15 	stw	r3,112(sp)
   23e1c:	d8801b15 	stw	r2,108(sp)
   23e20:	11000208 	cmpgei	r4,r2,8
   23e24:	203c2f26 	beq	r4,zero,22ee4 <___vfprintf_internal_r+0xfbc>
   23e28:	d9801a04 	addi	r6,sp,104
   23e2c:	900b883a 	mov	r5,r18
   23e30:	9809883a 	mov	r4,r19
   23e34:	002efb80 	call	2efb8 <__sprint_r>
   23e38:	10394a1e 	bne	r2,zero,22364 <___vfprintf_internal_r+0x43c>
   23e3c:	d8c01c17 	ldw	r3,112(sp)
   23e40:	d8801b17 	ldw	r2,108(sp)
   23e44:	dd802704 	addi	r22,sp,156
   23e48:	003c2706 	br	22ee8 <___vfprintf_internal_r+0xfc0>
   23e4c:	d8800817 	ldw	r2,32(sp)
   23e50:	d8c00b17 	ldw	r3,44(sp)
   23e54:	10eb883a 	add	r21,r2,r3
   23e58:	d8800717 	ldw	r2,28(sp)
   23e5c:	00800316 	blt	zero,r2,23e6c <___vfprintf_internal_r+0x1f44>
   23e60:	d8800717 	ldw	r2,28(sp)
   23e64:	a8abc83a 	sub	r21,r21,r2
   23e68:	ad400044 	addi	r21,r21,1
   23e6c:	a829883a 	mov	r20,r21
   23e70:	a8000e16 	blt	r21,zero,23eac <___vfprintf_internal_r+0x1f84>
   23e74:	070019c4 	movi	fp,103
   23e78:	003f1106 	br	23ac0 <___vfprintf_internal_r+0x1b98>
   23e7c:	d8800a17 	ldw	r2,40(sp)
   23e80:	10001616 	blt	r2,zero,23edc <___vfprintf_internal_r+0x1fb4>
   23e84:	db401343 	ldbu	r13,77(sp)
   23e88:	e0801210 	cmplti	r2,fp,72
   23e8c:	1000101e 	bne	r2,zero,23ed0 <___vfprintf_internal_r+0x1fa8>
   23e90:	04400134 	movhi	r17,4
   23e94:	8c64ab04 	addi	r17,r17,-27988
   23e98:	0039ca06 	br	225c4 <___vfprintf_internal_r+0x69c>
   23e9c:	d8c00b17 	ldw	r3,44(sp)
   23ea0:	10eb883a 	add	r21,r2,r3
   23ea4:	a829883a 	mov	r20,r21
   23ea8:	a83ff20e 	bge	r21,zero,23e74 <___vfprintf_internal_r+0x1f4c>
   23eac:	0029883a 	mov	r20,zero
   23eb0:	003ff006 	br	23e74 <___vfprintf_internal_r+0x1f4c>
   23eb4:	d8800717 	ldw	r2,28(sp)
   23eb8:	d8c00b17 	ldw	r3,44(sp)
   23ebc:	10eb883a 	add	r21,r2,r3
   23ec0:	aa2b883a 	add	r21,r21,r8
   23ec4:	003fc906 	br	23dec <___vfprintf_internal_r+0x1ec4>
   23ec8:	8025883a 	mov	r18,r16
   23ecc:	00392506 	br	22364 <___vfprintf_internal_r+0x43c>
   23ed0:	04400134 	movhi	r17,4
   23ed4:	8c64aa04 	addi	r17,r17,-27992
   23ed8:	0039ba06 	br	225c4 <___vfprintf_internal_r+0x69c>
   23edc:	00800b44 	movi	r2,45
   23ee0:	d8801345 	stb	r2,77(sp)
   23ee4:	03400b44 	movi	r13,45
   23ee8:	003fe706 	br	23e88 <___vfprintf_internal_r+0x1f60>
   23eec:	1000031e 	bne	r2,zero,23efc <___vfprintf_internal_r+0x1fd4>
   23ef0:	05000044 	movi	r20,1
   23ef4:	05400044 	movi	r21,1
   23ef8:	003ef106 	br	23ac0 <___vfprintf_internal_r+0x1b98>
   23efc:	d8800b17 	ldw	r2,44(sp)
   23f00:	15400044 	addi	r21,r2,1
   23f04:	aa2b883a 	add	r21,r21,r8
   23f08:	003fb806 	br	23dec <___vfprintf_internal_r+0x1ec4>
   23f0c:	d8c00617 	ldw	r3,24(sp)
   23f10:	1a000017 	ldw	r8,0(r3)
   23f14:	18c00104 	addi	r3,r3,4
   23f18:	4000010e 	bge	r8,zero,23f20 <___vfprintf_internal_r+0x1ff8>
   23f1c:	023fffc4 	movi	r8,-1
   23f20:	bf000043 	ldbu	fp,1(r23)
   23f24:	d8c00615 	stw	r3,24(sp)
   23f28:	102f883a 	mov	r23,r2
   23f2c:	e2c03fcc 	andi	r11,fp,255
   23f30:	5ac0201c 	xori	r11,r11,128
   23f34:	5affe004 	addi	r11,r11,-128
   23f38:	00384706 	br	22058 <___vfprintf_internal_r+0x130>
   23f3c:	00800084 	movi	r2,2
   23f40:	d8801015 	stw	r2,64(sp)
   23f44:	003e4e06 	br	23880 <___vfprintf_internal_r+0x1958>

00023f48 <__vfprintf_internal>:
   23f48:	00c00134 	movhi	r3,4
   23f4c:	2005883a 	mov	r2,r4
   23f50:	192dac17 	ldw	r4,-18768(r3)
   23f54:	300f883a 	mov	r7,r6
   23f58:	280d883a 	mov	r6,r5
   23f5c:	100b883a 	mov	r5,r2
   23f60:	0021f281 	jmpi	21f28 <___vfprintf_internal_r>

00023f64 <__sbprintf>:
   23f64:	2880030b 	ldhu	r2,12(r5)
   23f68:	2b001917 	ldw	r12,100(r5)
   23f6c:	2ac0038b 	ldhu	r11,14(r5)
   23f70:	2a800717 	ldw	r10,28(r5)
   23f74:	2a400917 	ldw	r9,36(r5)
   23f78:	defee204 	addi	sp,sp,-1144
   23f7c:	da001a04 	addi	r8,sp,104
   23f80:	00c10004 	movi	r3,1024
   23f84:	dc011a15 	stw	r16,1128(sp)
   23f88:	10bfff4c 	andi	r2,r2,65533
   23f8c:	2821883a 	mov	r16,r5
   23f90:	d80b883a 	mov	r5,sp
   23f94:	dc811c15 	stw	r18,1136(sp)
   23f98:	dc411b15 	stw	r17,1132(sp)
   23f9c:	dfc11d15 	stw	ra,1140(sp)
   23fa0:	2025883a 	mov	r18,r4
   23fa4:	d880030d 	sth	r2,12(sp)
   23fa8:	db001915 	stw	r12,100(sp)
   23fac:	dac0038d 	sth	r11,14(sp)
   23fb0:	da800715 	stw	r10,28(sp)
   23fb4:	da400915 	stw	r9,36(sp)
   23fb8:	da000015 	stw	r8,0(sp)
   23fbc:	da000415 	stw	r8,16(sp)
   23fc0:	d8c00215 	stw	r3,8(sp)
   23fc4:	d8c00515 	stw	r3,20(sp)
   23fc8:	d8000615 	stw	zero,24(sp)
   23fcc:	0021f280 	call	21f28 <___vfprintf_internal_r>
   23fd0:	1023883a 	mov	r17,r2
   23fd4:	10000d0e 	bge	r2,zero,2400c <__sbprintf+0xa8>
   23fd8:	d880030b 	ldhu	r2,12(sp)
   23fdc:	1080100c 	andi	r2,r2,64
   23fe0:	10000326 	beq	r2,zero,23ff0 <__sbprintf+0x8c>
   23fe4:	8080030b 	ldhu	r2,12(r16)
   23fe8:	10801014 	ori	r2,r2,64
   23fec:	8080030d 	sth	r2,12(r16)
   23ff0:	8805883a 	mov	r2,r17
   23ff4:	dfc11d17 	ldw	ra,1140(sp)
   23ff8:	dc811c17 	ldw	r18,1136(sp)
   23ffc:	dc411b17 	ldw	r17,1132(sp)
   24000:	dc011a17 	ldw	r16,1128(sp)
   24004:	dec11e04 	addi	sp,sp,1144
   24008:	f800283a 	ret
   2400c:	d80b883a 	mov	r5,sp
   24010:	9009883a 	mov	r4,r18
   24014:	00278840 	call	27884 <_fflush_r>
   24018:	103fef26 	beq	r2,zero,23fd8 <__sbprintf+0x74>
   2401c:	047fffc4 	movi	r17,-1
   24020:	003fed06 	br	23fd8 <__sbprintf+0x74>

00024024 <__svfscanf_r>:
   24024:	2880030b 	ldhu	r2,12(r5)
   24028:	deff4c04 	addi	sp,sp,-720
   2402c:	ddc0b115 	stw	r23,708(sp)
   24030:	dc00aa15 	stw	r16,680(sp)
   24034:	dfc0b315 	stw	ra,716(sp)
   24038:	df00b215 	stw	fp,712(sp)
   2403c:	dd80b015 	stw	r22,704(sp)
   24040:	dd40af15 	stw	r21,700(sp)
   24044:	dd00ae15 	stw	r20,696(sp)
   24048:	dcc0ad15 	stw	r19,692(sp)
   2404c:	dc80ac15 	stw	r18,688(sp)
   24050:	dc40ab15 	stw	r17,684(sp)
   24054:	10c8000c 	andi	r3,r2,8192
   24058:	d9c00215 	stw	r7,8(sp)
   2405c:	282f883a 	mov	r23,r5
   24060:	2021883a 	mov	r16,r4
   24064:	1800061e 	bne	r3,zero,24080 <__svfscanf_r+0x5c>
   24068:	28c01917 	ldw	r3,100(r5)
   2406c:	0137ffc4 	movi	r4,-8193
   24070:	10880014 	ori	r2,r2,8192
   24074:	1906703a 	and	r3,r3,r4
   24078:	2880030d 	sth	r2,12(r5)
   2407c:	28c01915 	stw	r3,100(r5)
   24080:	30800003 	ldbu	r2,0(r6)
   24084:	35400044 	addi	r21,r6,1
   24088:	d8800d15 	stw	r2,52(sp)
   2408c:	1005b726 	beq	r2,zero,2576c <__svfscanf_r+0x1748>
   24090:	0039883a 	mov	fp,zero
   24094:	e025883a 	mov	r18,fp
   24098:	d8000415 	stw	zero,16(sp)
   2409c:	0023883a 	mov	r17,zero
   240a0:	d8000315 	stw	zero,12(sp)
   240a4:	d8000115 	stw	zero,4(sp)
   240a8:	b839883a 	mov	fp,r23
   240ac:	00c00134 	movhi	r3,4
   240b0:	10c7883a 	add	r3,r2,r3
   240b4:	18e4cb43 	ldbu	r3,-27859(r3)
   240b8:	18c0020c 	andi	r3,r3,8
   240bc:	1800771e 	bne	r3,zero,2429c <__svfscanf_r+0x278>
   240c0:	10800958 	cmpnei	r2,r2,37
   240c4:	1000621e 	bne	r2,zero,24250 <__svfscanf_r+0x22c>
   240c8:	a9800003 	ldbu	r6,0(r21)
   240cc:	0029883a 	mov	r20,zero
   240d0:	002d883a 	mov	r22,zero
   240d4:	30bff6c4 	addi	r2,r6,-37
   240d8:	10803fcc 	andi	r2,r2,255
   240dc:	10c01528 	cmpgeui	r3,r2,84
   240e0:	a9400044 	addi	r5,r21,1
   240e4:	1800601e 	bne	r3,zero,24268 <__svfscanf_r+0x244>
   240e8:	100490ba 	slli	r2,r2,2
   240ec:	00c000b4 	movhi	r3,2
   240f0:	10c7883a 	add	r3,r2,r3
   240f4:	18903f17 	ldw	r2,16636(r3)
   240f8:	1000683a 	jmp	r2
   240fc:	0002424c 	andi	zero,zero,2313
   24100:	00024268 	cmpgeui	zero,zero,2313
   24104:	00024268 	cmpgeui	zero,zero,2313
   24108:	00024268 	cmpgeui	zero,zero,2313
   2410c:	00024268 	cmpgeui	zero,zero,2313
   24110:	00024664 	muli	zero,zero,2329
   24114:	00024268 	cmpgeui	zero,zero,2313
   24118:	00024268 	cmpgeui	zero,zero,2313
   2411c:	00024268 	cmpgeui	zero,zero,2313
   24120:	00024268 	cmpgeui	zero,zero,2313
   24124:	00024268 	cmpgeui	zero,zero,2313
   24128:	0002435c 	xori	zero,zero,2317
   2412c:	0002435c 	xori	zero,zero,2317
   24130:	0002435c 	xori	zero,zero,2317
   24134:	0002435c 	xori	zero,zero,2317
   24138:	0002435c 	xori	zero,zero,2317
   2413c:	0002435c 	xori	zero,zero,2317
   24140:	0002435c 	xori	zero,zero,2317
   24144:	0002435c 	xori	zero,zero,2317
   24148:	0002435c 	xori	zero,zero,2317
   2414c:	0002435c 	xori	zero,zero,2317
   24150:	00024268 	cmpgeui	zero,zero,2313
   24154:	00024268 	cmpgeui	zero,zero,2313
   24158:	00024268 	cmpgeui	zero,zero,2313
   2415c:	00024268 	cmpgeui	zero,zero,2313
   24160:	00024268 	cmpgeui	zero,zero,2313
   24164:	00024268 	cmpgeui	zero,zero,2313
   24168:	00024268 	cmpgeui	zero,zero,2313
   2416c:	00024268 	cmpgeui	zero,zero,2313
   24170:	00024268 	cmpgeui	zero,zero,2313
   24174:	00024268 	cmpgeui	zero,zero,2313
   24178:	00024640 	call	2464 <__reset-0x1db9c>
   2417c:	00024388 	cmpgei	zero,zero,2318
   24180:	00024268 	cmpgeui	zero,zero,2313
   24184:	00024388 	cmpgei	zero,zero,2318
   24188:	00024268 	cmpgeui	zero,zero,2313
   2418c:	00024268 	cmpgeui	zero,zero,2313
   24190:	00024268 	cmpgeui	zero,zero,2313
   24194:	00024268 	cmpgeui	zero,zero,2313
   24198:	00024508 	cmpgei	zero,zero,2324
   2419c:	00024268 	cmpgeui	zero,zero,2313
   241a0:	00024268 	cmpgeui	zero,zero,2313
   241a4:	00024520 	cmpeqi	zero,zero,2324
   241a8:	00024268 	cmpgeui	zero,zero,2313
   241ac:	00024268 	cmpgeui	zero,zero,2313
   241b0:	00024268 	cmpgeui	zero,zero,2313
   241b4:	00024268 	cmpgeui	zero,zero,2313
   241b8:	00024268 	cmpgeui	zero,zero,2313
   241bc:	00024268 	cmpgeui	zero,zero,2313
   241c0:	00024268 	cmpgeui	zero,zero,2313
   241c4:	00024268 	cmpgeui	zero,zero,2313
   241c8:	00024458 	cmpnei	zero,zero,2321
   241cc:	00024268 	cmpgeui	zero,zero,2313
   241d0:	00024268 	cmpgeui	zero,zero,2313
   241d4:	00024628 	cmpgeui	zero,zero,2328
   241d8:	00024268 	cmpgeui	zero,zero,2313
   241dc:	00024268 	cmpgeui	zero,zero,2313
   241e0:	00024268 	cmpgeui	zero,zero,2313
   241e4:	00024268 	cmpgeui	zero,zero,2313
   241e8:	00024268 	cmpgeui	zero,zero,2313
   241ec:	00024268 	cmpgeui	zero,zero,2313
   241f0:	00024268 	cmpgeui	zero,zero,2313
   241f4:	00024588 	cmpgei	zero,zero,2326
   241f8:	00025638 	rdprs	zero,zero,2392
   241fc:	00024388 	cmpgei	zero,zero,2318
   24200:	00024388 	cmpgei	zero,zero,2318
   24204:	00024388 	cmpgei	zero,zero,2318
   24208:	000245d0 	cmplti	zero,zero,2327
   2420c:	000245e8 	cmpgeui	zero,zero,2327
   24210:	00024268 	cmpgeui	zero,zero,2313
   24214:	00024268 	cmpgeui	zero,zero,2313
   24218:	00024604 	movi	zero,2328
   2421c:	00024268 	cmpgeui	zero,zero,2313
   24220:	00024544 	movi	zero,2325
   24224:	00025630 	cmpltui	zero,zero,2392
   24228:	00024598 	cmpnei	zero,zero,2326
   2422c:	00024268 	cmpgeui	zero,zero,2313
   24230:	00024268 	cmpgeui	zero,zero,2313
   24234:	000245a4 	muli	zero,zero,2326
   24238:	00024268 	cmpgeui	zero,zero,2313
   2423c:	000245b0 	cmpltui	zero,zero,2326
   24240:	00024268 	cmpgeui	zero,zero,2313
   24244:	00024268 	cmpgeui	zero,zero,2313
   24248:	00024458 	cmpnei	zero,zero,2321
   2424c:	282b883a 	mov	r21,r5
   24250:	e0800117 	ldw	r2,4(fp)
   24254:	0080350e 	bge	zero,r2,2432c <__svfscanf_r+0x308>
   24258:	e0800017 	ldw	r2,0(fp)
   2425c:	a8ffffc3 	ldbu	r3,-1(r21)
   24260:	11000003 	ldbu	r4,0(r2)
   24264:	20c02626 	beq	r4,r3,24300 <__svfscanf_r+0x2dc>
   24268:	d8800117 	ldw	r2,4(sp)
   2426c:	dfc0b317 	ldw	ra,716(sp)
   24270:	df00b217 	ldw	fp,712(sp)
   24274:	ddc0b117 	ldw	r23,708(sp)
   24278:	dd80b017 	ldw	r22,704(sp)
   2427c:	dd40af17 	ldw	r21,700(sp)
   24280:	dd00ae17 	ldw	r20,696(sp)
   24284:	dcc0ad17 	ldw	r19,692(sp)
   24288:	dc80ac17 	ldw	r18,688(sp)
   2428c:	dc40ab17 	ldw	r17,684(sp)
   24290:	dc00aa17 	ldw	r16,680(sp)
   24294:	dec0b404 	addi	sp,sp,720
   24298:	f800283a 	ret
   2429c:	e0800117 	ldw	r2,4(fp)
   242a0:	00800e0e 	bge	zero,r2,242dc <__svfscanf_r+0x2b8>
   242a4:	e0800017 	ldw	r2,0(fp)
   242a8:	00c00134 	movhi	r3,4
   242ac:	11400003 	ldbu	r5,0(r2)
   242b0:	10800044 	addi	r2,r2,1
   242b4:	28c7883a 	add	r3,r5,r3
   242b8:	18e4cb43 	ldbu	r3,-27859(r3)
   242bc:	18c0020c 	andi	r3,r3,8
   242c0:	18000a26 	beq	r3,zero,242ec <__svfscanf_r+0x2c8>
   242c4:	e0c00117 	ldw	r3,4(fp)
   242c8:	e0800015 	stw	r2,0(fp)
   242cc:	94800044 	addi	r18,r18,1
   242d0:	18bfffc4 	addi	r2,r3,-1
   242d4:	e0800115 	stw	r2,4(fp)
   242d8:	00bff216 	blt	zero,r2,242a4 <__svfscanf_r+0x280>
   242dc:	e00b883a 	mov	r5,fp
   242e0:	8009883a 	mov	r4,r16
   242e4:	002a3d40 	call	2a3d4 <__srefill_r>
   242e8:	103fee26 	beq	r2,zero,242a4 <__svfscanf_r+0x280>
   242ec:	a8800003 	ldbu	r2,0(r21)
   242f0:	ad400044 	addi	r21,r21,1
   242f4:	d8800d15 	stw	r2,52(sp)
   242f8:	103f6c1e 	bne	r2,zero,240ac <__svfscanf_r+0x88>
   242fc:	003fda06 	br	24268 <__svfscanf_r+0x244>
   24300:	e0c00117 	ldw	r3,4(fp)
   24304:	10800044 	addi	r2,r2,1
   24308:	e0800015 	stw	r2,0(fp)
   2430c:	18bfffc4 	addi	r2,r3,-1
   24310:	e0800115 	stw	r2,4(fp)
   24314:	a8800003 	ldbu	r2,0(r21)
   24318:	94800044 	addi	r18,r18,1
   2431c:	ad400044 	addi	r21,r21,1
   24320:	d8800d15 	stw	r2,52(sp)
   24324:	103f611e 	bne	r2,zero,240ac <__svfscanf_r+0x88>
   24328:	003fcf06 	br	24268 <__svfscanf_r+0x244>
   2432c:	e00b883a 	mov	r5,fp
   24330:	8009883a 	mov	r4,r16
   24334:	002a3d40 	call	2a3d4 <__srefill_r>
   24338:	103fc726 	beq	r2,zero,24258 <__svfscanf_r+0x234>
   2433c:	d8800117 	ldw	r2,4(sp)
   24340:	10000326 	beq	r2,zero,24350 <__svfscanf_r+0x32c>
   24344:	e080030b 	ldhu	r2,12(fp)
   24348:	1080100c 	andi	r2,r2,64
   2434c:	103fc626 	beq	r2,zero,24268 <__svfscanf_r+0x244>
   24350:	00bfffc4 	movi	r2,-1
   24354:	d8800115 	stw	r2,4(sp)
   24358:	003fc306 	br	24268 <__svfscanf_r+0x244>
   2435c:	a08023cc 	andi	r2,r20,143
   24360:	103fc11e 	bne	r2,zero,24268 <__svfscanf_r+0x244>
   24364:	b00490ba 	slli	r2,r22,2
   24368:	30c03fcc 	andi	r3,r6,255
   2436c:	a9800043 	ldbu	r6,1(r21)
   24370:	15ad883a 	add	r22,r2,r22
   24374:	b5ad883a 	add	r22,r22,r22
   24378:	b0ed883a 	add	r22,r22,r3
   2437c:	b5bff404 	addi	r22,r22,-48
   24380:	282b883a 	mov	r21,r5
   24384:	003f5306 	br	240d4 <__svfscanf_r+0xb0>
   24388:	282b883a 	mov	r21,r5
   2438c:	04c00104 	movi	r19,4
   24390:	e0800117 	ldw	r2,4(fp)
   24394:	00803a0e 	bge	zero,r2,24480 <__svfscanf_r+0x45c>
   24398:	a080100c 	andi	r2,r20,64
   2439c:	10003e26 	beq	r2,zero,24498 <__svfscanf_r+0x474>
   243a0:	988000e0 	cmpeqi	r2,r19,3
   243a4:	1000cb1e 	bne	r2,zero,246d4 <__svfscanf_r+0x6b0>
   243a8:	98800120 	cmpeqi	r2,r19,4
   243ac:	1001b81e 	bne	r2,zero,24a90 <__svfscanf_r+0xa6c>
   243b0:	98800060 	cmpeqi	r2,r19,1
   243b4:	1001881e 	bne	r2,zero,249d8 <__svfscanf_r+0x9b4>
   243b8:	9cc000a0 	cmpeqi	r19,r19,2
   243bc:	9800af26 	beq	r19,zero,2467c <__svfscanf_r+0x658>
   243c0:	b000011e 	bne	r22,zero,243c8 <__svfscanf_r+0x3a4>
   243c4:	05bfffc4 	movi	r22,-1
   243c8:	e1000017 	ldw	r4,0(fp)
   243cc:	00800134 	movhi	r2,4
   243d0:	a140004c 	andi	r5,r20,1
   243d4:	21800003 	ldbu	r6,0(r4)
   243d8:	a500040c 	andi	r20,r20,16
   243dc:	3085883a 	add	r2,r6,r2
   243e0:	10a4cb43 	ldbu	r2,-27859(r2)
   243e4:	1080020c 	andi	r2,r2,8
   243e8:	2803051e 	bne	r5,zero,25000 <__svfscanf_r+0xfdc>
   243ec:	a0038a26 	beq	r20,zero,25218 <__svfscanf_r+0x11f4>
   243f0:	103fbe1e 	bne	r2,zero,242ec <__svfscanf_r+0x2c8>
   243f4:	e0800117 	ldw	r2,4(fp)
   243f8:	21000044 	addi	r4,r4,1
   243fc:	e1000015 	stw	r4,0(fp)
   24400:	10bfffc4 	addi	r2,r2,-1
   24404:	e0800115 	stw	r2,4(fp)
   24408:	b1000058 	cmpnei	r4,r22,1
   2440c:	04c00044 	movi	r19,1
   24410:	20049b26 	beq	r4,zero,25680 <__svfscanf_r+0x165c>
   24414:	0082e70e 	bge	zero,r2,24fb4 <__svfscanf_r+0xf90>
   24418:	e0800017 	ldw	r2,0(fp)
   2441c:	00c00134 	movhi	r3,4
   24420:	11400003 	ldbu	r5,0(r2)
   24424:	10800044 	addi	r2,r2,1
   24428:	28c7883a 	add	r3,r5,r3
   2442c:	18e4cb43 	ldbu	r3,-27859(r3)
   24430:	18c0020c 	andi	r3,r3,8
   24434:	1802e31e 	bne	r3,zero,24fc4 <__svfscanf_r+0xfa0>
   24438:	e0c00117 	ldw	r3,4(fp)
   2443c:	e0800015 	stw	r2,0(fp)
   24440:	9cc00044 	addi	r19,r19,1
   24444:	18bfffc4 	addi	r2,r3,-1
   24448:	e0800115 	stw	r2,4(fp)
   2444c:	b4fff11e 	bne	r22,r19,24414 <__svfscanf_r+0x3f0>
   24450:	95a5883a 	add	r18,r18,r22
   24454:	003fa506 	br	242ec <__svfscanf_r+0x2c8>
   24458:	008000f4 	movhi	r2,3
   2445c:	a5008014 	ori	r20,r20,512
   24460:	10b24904 	addi	r2,r2,-14044
   24464:	d8800415 	stw	r2,16(sp)
   24468:	00800404 	movi	r2,16
   2446c:	d8800315 	stw	r2,12(sp)
   24470:	e0800117 	ldw	r2,4(fp)
   24474:	282b883a 	mov	r21,r5
   24478:	04c000c4 	movi	r19,3
   2447c:	00bfc616 	blt	zero,r2,24398 <__svfscanf_r+0x374>
   24480:	e00b883a 	mov	r5,fp
   24484:	8009883a 	mov	r4,r16
   24488:	002a3d40 	call	2a3d4 <__srefill_r>
   2448c:	103fab1e 	bne	r2,zero,2433c <__svfscanf_r+0x318>
   24490:	a080100c 	andi	r2,r20,64
   24494:	103fc21e 	bne	r2,zero,243a0 <__svfscanf_r+0x37c>
   24498:	e1000017 	ldw	r4,0(fp)
   2449c:	00800134 	movhi	r2,4
   244a0:	21400003 	ldbu	r5,0(r4)
   244a4:	2885883a 	add	r2,r5,r2
   244a8:	10a4cb43 	ldbu	r2,-27859(r2)
   244ac:	1080020c 	andi	r2,r2,8
   244b0:	103fbb26 	beq	r2,zero,243a0 <__svfscanf_r+0x37c>
   244b4:	2007883a 	mov	r3,r4
   244b8:	00000706 	br	244d8 <__svfscanf_r+0x4b4>
   244bc:	e0c00015 	stw	r3,0(fp)
   244c0:	19000003 	ldbu	r4,0(r3)
   244c4:	00800134 	movhi	r2,4
   244c8:	2085883a 	add	r2,r4,r2
   244cc:	10a4cb43 	ldbu	r2,-27859(r2)
   244d0:	1080020c 	andi	r2,r2,8
   244d4:	103fb226 	beq	r2,zero,243a0 <__svfscanf_r+0x37c>
   244d8:	e0800117 	ldw	r2,4(fp)
   244dc:	18c00044 	addi	r3,r3,1
   244e0:	94800044 	addi	r18,r18,1
   244e4:	10bfffc4 	addi	r2,r2,-1
   244e8:	e0800115 	stw	r2,4(fp)
   244ec:	00bff316 	blt	zero,r2,244bc <__svfscanf_r+0x498>
   244f0:	e00b883a 	mov	r5,fp
   244f4:	8009883a 	mov	r4,r16
   244f8:	002a3d40 	call	2a3d4 <__srefill_r>
   244fc:	103f8f1e 	bne	r2,zero,2433c <__svfscanf_r+0x318>
   24500:	e0c00017 	ldw	r3,0(fp)
   24504:	003fee06 	br	244c0 <__svfscanf_r+0x49c>
   24508:	a08003cc 	andi	r2,r20,15
   2450c:	103f561e 	bne	r2,zero,24268 <__svfscanf_r+0x244>
   24510:	a9800043 	ldbu	r6,1(r21)
   24514:	a5000094 	ori	r20,r20,2
   24518:	282b883a 	mov	r21,r5
   2451c:	003eed06 	br	240d4 <__svfscanf_r+0xb0>
   24520:	008000f4 	movhi	r2,3
   24524:	a5000054 	ori	r20,r20,1
   24528:	10b24904 	addi	r2,r2,-14044
   2452c:	d8800415 	stw	r2,16(sp)
   24530:	00800204 	movi	r2,8
   24534:	282b883a 	mov	r21,r5
   24538:	d8800315 	stw	r2,12(sp)
   2453c:	04c000c4 	movi	r19,3
   24540:	003f9306 	br	24390 <__svfscanf_r+0x36c>
   24544:	a080040c 	andi	r2,r20,16
   24548:	1004071e 	bne	r2,zero,25568 <__svfscanf_r+0x1544>
   2454c:	d9000217 	ldw	r4,8(sp)
   24550:	a080010c 	andi	r2,r20,4
   24554:	20c00017 	ldw	r3,0(r4)
   24558:	21000104 	addi	r4,r4,4
   2455c:	1004301e 	bne	r2,zero,25620 <__svfscanf_r+0x15fc>
   24560:	a080004c 	andi	r2,r20,1
   24564:	1004831e 	bne	r2,zero,25774 <__svfscanf_r+0x1750>
   24568:	a500008c 	andi	r20,r20,2
   2456c:	a0048126 	beq	r20,zero,25774 <__svfscanf_r+0x1750>
   24570:	9005d7fa 	srai	r2,r18,31
   24574:	1c800015 	stw	r18,0(r3)
   24578:	d9000215 	stw	r4,8(sp)
   2457c:	18800115 	stw	r2,4(r3)
   24580:	282b883a 	mov	r21,r5
   24584:	003f5906 	br	242ec <__svfscanf_r+0x2c8>
   24588:	a5001014 	ori	r20,r20,64
   2458c:	282b883a 	mov	r21,r5
   24590:	0027883a 	mov	r19,zero
   24594:	003f7e06 	br	24390 <__svfscanf_r+0x36c>
   24598:	008000f4 	movhi	r2,3
   2459c:	a5008814 	ori	r20,r20,544
   245a0:	003faf06 	br	24460 <__svfscanf_r+0x43c>
   245a4:	282b883a 	mov	r21,r5
   245a8:	04c00084 	movi	r19,2
   245ac:	003f7806 	br	24390 <__svfscanf_r+0x36c>
   245b0:	008000f4 	movhi	r2,3
   245b4:	10b24904 	addi	r2,r2,-14044
   245b8:	d8800415 	stw	r2,16(sp)
   245bc:	00800284 	movi	r2,10
   245c0:	282b883a 	mov	r21,r5
   245c4:	d8800315 	stw	r2,12(sp)
   245c8:	04c000c4 	movi	r19,3
   245cc:	003f7006 	br	24390 <__svfscanf_r+0x36c>
   245d0:	a08003cc 	andi	r2,r20,15
   245d4:	103f241e 	bne	r2,zero,24268 <__svfscanf_r+0x244>
   245d8:	a9800043 	ldbu	r6,1(r21)
   245dc:	a5000114 	ori	r20,r20,4
   245e0:	282b883a 	mov	r21,r5
   245e4:	003ebb06 	br	240d4 <__svfscanf_r+0xb0>
   245e8:	008000f4 	movhi	r2,3
   245ec:	10b0dd04 	addi	r2,r2,-15500
   245f0:	282b883a 	mov	r21,r5
   245f4:	d8800415 	stw	r2,16(sp)
   245f8:	d8000315 	stw	zero,12(sp)
   245fc:	04c000c4 	movi	r19,3
   24600:	003f6306 	br	24390 <__svfscanf_r+0x36c>
   24604:	a08003cc 	andi	r2,r20,15
   24608:	103f171e 	bne	r2,zero,24268 <__svfscanf_r+0x244>
   2460c:	a9800043 	ldbu	r6,1(r21)
   24610:	30803fcc 	andi	r2,r6,255
   24614:	10801b18 	cmpnei	r2,r2,108
   24618:	10043826 	beq	r2,zero,256fc <__svfscanf_r+0x16d8>
   2461c:	a5000054 	ori	r20,r20,1
   24620:	282b883a 	mov	r21,r5
   24624:	003eab06 	br	240d4 <__svfscanf_r+0xb0>
   24628:	d9001284 	addi	r4,sp,74
   2462c:	002a5a00 	call	2a5a0 <__sccl>
   24630:	102b883a 	mov	r21,r2
   24634:	a5001014 	ori	r20,r20,64
   24638:	04c00044 	movi	r19,1
   2463c:	003f5406 	br	24390 <__svfscanf_r+0x36c>
   24640:	008000f4 	movhi	r2,3
   24644:	a5000054 	ori	r20,r20,1
   24648:	10b0dd04 	addi	r2,r2,-15500
   2464c:	d8800415 	stw	r2,16(sp)
   24650:	00800284 	movi	r2,10
   24654:	282b883a 	mov	r21,r5
   24658:	d8800315 	stw	r2,12(sp)
   2465c:	04c000c4 	movi	r19,3
   24660:	003f4b06 	br	24390 <__svfscanf_r+0x36c>
   24664:	b52cb03a 	or	r22,r22,r20
   24668:	b03eff1e 	bne	r22,zero,24268 <__svfscanf_r+0x244>
   2466c:	a9800043 	ldbu	r6,1(r21)
   24670:	05000404 	movi	r20,16
   24674:	282b883a 	mov	r21,r5
   24678:	003e9606 	br	240d4 <__svfscanf_r+0xb0>
   2467c:	b027883a 	mov	r19,r22
   24680:	b000011e 	bne	r22,zero,24688 <__svfscanf_r+0x664>
   24684:	04c00044 	movi	r19,1
   24688:	a080004c 	andi	r2,r20,1
   2468c:	a500040c 	andi	r20,r20,16
   24690:	10030f1e 	bne	r2,zero,252d0 <__svfscanf_r+0x12ac>
   24694:	a002cc1e 	bne	r20,zero,251c8 <__svfscanf_r+0x11a4>
   24698:	dd000217 	ldw	r20,8(sp)
   2469c:	df000015 	stw	fp,0(sp)
   246a0:	980f883a 	mov	r7,r19
   246a4:	a1400017 	ldw	r5,0(r20)
   246a8:	01800044 	movi	r6,1
   246ac:	8009883a 	mov	r4,r16
   246b0:	00279680 	call	27968 <_fread_r>
   246b4:	a0c00104 	addi	r3,r20,4
   246b8:	103f2026 	beq	r2,zero,2433c <__svfscanf_r+0x318>
   246bc:	90a5883a 	add	r18,r18,r2
   246c0:	d8800117 	ldw	r2,4(sp)
   246c4:	d8c00215 	stw	r3,8(sp)
   246c8:	10800044 	addi	r2,r2,1
   246cc:	d8800115 	stw	r2,4(sp)
   246d0:	003f0606 	br	242ec <__svfscanf_r+0x2c8>
   246d4:	b0bfffc4 	addi	r2,r22,-1
   246d8:	10805770 	cmpltui	r2,r2,349
   246dc:	10023d1e 	bne	r2,zero,24fd4 <__svfscanf_r+0xfb0>
   246e0:	b0bfa8c4 	addi	r2,r22,-349
   246e4:	d8800515 	stw	r2,20(sp)
   246e8:	05805744 	movi	r22,349
   246ec:	d9800317 	ldw	r6,12(sp)
   246f0:	a4c36014 	ori	r19,r20,3456
   246f4:	ddc05284 	addi	r23,sp,330
   246f8:	0029883a 	mov	r20,zero
   246fc:	e0800017 	ldw	r2,0(fp)
   24700:	10c00003 	ldbu	r3,0(r2)
   24704:	18bff544 	addi	r2,r3,-43
   24708:	10803fcc 	andi	r2,r2,255
   2470c:	114013a8 	cmpgeui	r5,r2,78
   24710:	2800621e 	bne	r5,zero,2489c <__svfscanf_r+0x878>
   24714:	100490ba 	slli	r2,r2,2
   24718:	014000b4 	movhi	r5,2
   2471c:	114b883a 	add	r5,r2,r5
   24720:	2891ca17 	ldw	r2,18216(r5)
   24724:	1000683a 	jmp	r2
   24728:	00024964 	muli	zero,zero,2341
   2472c:	0002489c 	xori	zero,zero,2338
   24730:	00024964 	muli	zero,zero,2341
   24734:	0002489c 	xori	zero,zero,2338
   24738:	0002489c 	xori	zero,zero,2338
   2473c:	00024994 	movui	zero,2342
   24740:	00024928 	cmpgeui	zero,zero,2340
   24744:	00024928 	cmpgeui	zero,zero,2340
   24748:	00024928 	cmpgeui	zero,zero,2340
   2474c:	00024928 	cmpgeui	zero,zero,2340
   24750:	00024928 	cmpgeui	zero,zero,2340
   24754:	00024928 	cmpgeui	zero,zero,2340
   24758:	00024928 	cmpgeui	zero,zero,2340
   2475c:	00024978 	rdprs	zero,zero,2341
   24760:	00024978 	rdprs	zero,zero,2341
   24764:	0002489c 	xori	zero,zero,2338
   24768:	0002489c 	xori	zero,zero,2338
   2476c:	0002489c 	xori	zero,zero,2338
   24770:	0002489c 	xori	zero,zero,2338
   24774:	0002489c 	xori	zero,zero,2338
   24778:	0002489c 	xori	zero,zero,2338
   2477c:	0002489c 	xori	zero,zero,2338
   24780:	00024860 	cmpeqi	zero,zero,2337
   24784:	00024860 	cmpeqi	zero,zero,2337
   24788:	00024860 	cmpeqi	zero,zero,2337
   2478c:	00024860 	cmpeqi	zero,zero,2337
   24790:	00024860 	cmpeqi	zero,zero,2337
   24794:	00024860 	cmpeqi	zero,zero,2337
   24798:	0002489c 	xori	zero,zero,2338
   2479c:	0002489c 	xori	zero,zero,2338
   247a0:	0002489c 	xori	zero,zero,2338
   247a4:	0002489c 	xori	zero,zero,2338
   247a8:	0002489c 	xori	zero,zero,2338
   247ac:	0002489c 	xori	zero,zero,2338
   247b0:	0002489c 	xori	zero,zero,2338
   247b4:	0002489c 	xori	zero,zero,2338
   247b8:	0002489c 	xori	zero,zero,2338
   247bc:	0002489c 	xori	zero,zero,2338
   247c0:	0002489c 	xori	zero,zero,2338
   247c4:	0002489c 	xori	zero,zero,2338
   247c8:	0002489c 	xori	zero,zero,2338
   247cc:	0002489c 	xori	zero,zero,2338
   247d0:	0002489c 	xori	zero,zero,2338
   247d4:	0002489c 	xori	zero,zero,2338
   247d8:	0002489c 	xori	zero,zero,2338
   247dc:	00024944 	movi	zero,2341
   247e0:	0002489c 	xori	zero,zero,2338
   247e4:	0002489c 	xori	zero,zero,2338
   247e8:	0002489c 	xori	zero,zero,2338
   247ec:	0002489c 	xori	zero,zero,2338
   247f0:	0002489c 	xori	zero,zero,2338
   247f4:	0002489c 	xori	zero,zero,2338
   247f8:	0002489c 	xori	zero,zero,2338
   247fc:	0002489c 	xori	zero,zero,2338
   24800:	00024860 	cmpeqi	zero,zero,2337
   24804:	00024860 	cmpeqi	zero,zero,2337
   24808:	00024860 	cmpeqi	zero,zero,2337
   2480c:	00024860 	cmpeqi	zero,zero,2337
   24810:	00024860 	cmpeqi	zero,zero,2337
   24814:	00024860 	cmpeqi	zero,zero,2337
   24818:	0002489c 	xori	zero,zero,2338
   2481c:	0002489c 	xori	zero,zero,2338
   24820:	0002489c 	xori	zero,zero,2338
   24824:	0002489c 	xori	zero,zero,2338
   24828:	0002489c 	xori	zero,zero,2338
   2482c:	0002489c 	xori	zero,zero,2338
   24830:	0002489c 	xori	zero,zero,2338
   24834:	0002489c 	xori	zero,zero,2338
   24838:	0002489c 	xori	zero,zero,2338
   2483c:	0002489c 	xori	zero,zero,2338
   24840:	0002489c 	xori	zero,zero,2338
   24844:	0002489c 	xori	zero,zero,2338
   24848:	0002489c 	xori	zero,zero,2338
   2484c:	0002489c 	xori	zero,zero,2338
   24850:	0002489c 	xori	zero,zero,2338
   24854:	0002489c 	xori	zero,zero,2338
   24858:	0002489c 	xori	zero,zero,2338
   2485c:	00024944 	movi	zero,2341
   24860:	308002d0 	cmplti	r2,r6,11
   24864:	10000d1e 	bne	r2,zero,2489c <__svfscanf_r+0x878>
   24868:	00bd1fc4 	movi	r2,-2945
   2486c:	98a6703a 	and	r19,r19,r2
   24870:	b8c00005 	stb	r3,0(r23)
   24874:	bdc00044 	addi	r23,r23,1
   24878:	e0800117 	ldw	r2,4(fp)
   2487c:	10bfffc4 	addi	r2,r2,-1
   24880:	e0800115 	stw	r2,4(fp)
   24884:	00804d0e 	bge	zero,r2,249bc <__svfscanf_r+0x998>
   24888:	e0800017 	ldw	r2,0(fp)
   2488c:	10800044 	addi	r2,r2,1
   24890:	e0800015 	stw	r2,0(fp)
   24894:	b5bfffc4 	addi	r22,r22,-1
   24898:	b03f981e 	bne	r22,zero,246fc <__svfscanf_r+0x6d8>
   2489c:	d9800315 	stw	r6,12(sp)
   248a0:	9880400c 	andi	r2,r19,256
   248a4:	10000426 	beq	r2,zero,248b8 <__svfscanf_r+0x894>
   248a8:	d8805284 	addi	r2,sp,330
   248ac:	15c38736 	bltu	r2,r23,256cc <__svfscanf_r+0x16a8>
   248b0:	d8805284 	addi	r2,sp,330
   248b4:	b8be6c26 	beq	r23,r2,24268 <__svfscanf_r+0x244>
   248b8:	9880040c 	andi	r2,r19,16
   248bc:	1000111e 	bne	r2,zero,24904 <__svfscanf_r+0x8e0>
   248c0:	d9c00317 	ldw	r7,12(sp)
   248c4:	d8800417 	ldw	r2,16(sp)
   248c8:	8009883a 	mov	r4,r16
   248cc:	b8000005 	stb	zero,0(r23)
   248d0:	000d883a 	mov	r6,zero
   248d4:	d9405284 	addi	r5,sp,330
   248d8:	103ee83a 	callr	r2
   248dc:	d9000217 	ldw	r4,8(sp)
   248e0:	98c0080c 	andi	r3,r19,32
   248e4:	25800104 	addi	r22,r4,4
   248e8:	1802f826 	beq	r3,zero,254cc <__svfscanf_r+0x14a8>
   248ec:	20c00017 	ldw	r3,0(r4)
   248f0:	18800015 	stw	r2,0(r3)
   248f4:	d8800117 	ldw	r2,4(sp)
   248f8:	dd800215 	stw	r22,8(sp)
   248fc:	10800044 	addi	r2,r2,1
   24900:	d8800115 	stw	r2,4(sp)
   24904:	d8805284 	addi	r2,sp,330
   24908:	b8afc83a 	sub	r23,r23,r2
   2490c:	a8800003 	ldbu	r2,0(r21)
   24910:	bd2f883a 	add	r23,r23,r20
   24914:	95e5883a 	add	r18,r18,r23
   24918:	d8800d15 	stw	r2,52(sp)
   2491c:	ad400044 	addi	r21,r21,1
   24920:	103de21e 	bne	r2,zero,240ac <__svfscanf_r+0x88>
   24924:	003e5006 	br	24268 <__svfscanf_r+0x244>
   24928:	318d883a 	add	r6,r6,r6
   2492c:	00800134 	movhi	r2,4
   24930:	3085883a 	add	r2,r6,r2
   24934:	11a4c28f 	ldh	r6,-27894(r2)
   24938:	00bd1fc4 	movi	r2,-2945
   2493c:	98a6703a 	and	r19,r19,r2
   24940:	003fcb06 	br	24870 <__svfscanf_r+0x84c>
   24944:	9881800c 	andi	r2,r19,1536
   24948:	10808018 	cmpnei	r2,r2,512
   2494c:	103fd31e 	bne	r2,zero,2489c <__svfscanf_r+0x878>
   24950:	00bf7fc4 	movi	r2,-513
   24954:	98a6703a 	and	r19,r19,r2
   24958:	9cc14014 	ori	r19,r19,1280
   2495c:	01800404 	movi	r6,16
   24960:	003fc306 	br	24870 <__svfscanf_r+0x84c>
   24964:	9880200c 	andi	r2,r19,128
   24968:	103fcc26 	beq	r2,zero,2489c <__svfscanf_r+0x878>
   2496c:	00bfdfc4 	movi	r2,-129
   24970:	98a6703a 	and	r19,r19,r2
   24974:	003fbe06 	br	24870 <__svfscanf_r+0x84c>
   24978:	318d883a 	add	r6,r6,r6
   2497c:	00800134 	movhi	r2,4
   24980:	3085883a 	add	r2,r6,r2
   24984:	11a4c28f 	ldh	r6,-27894(r2)
   24988:	30800250 	cmplti	r2,r6,9
   2498c:	103fb626 	beq	r2,zero,24868 <__svfscanf_r+0x844>
   24990:	003fc206 	br	2489c <__svfscanf_r+0x878>
   24994:	9882000c 	andi	r2,r19,2048
   24998:	103fb526 	beq	r2,zero,24870 <__svfscanf_r+0x84c>
   2499c:	3000021e 	bne	r6,zero,249a8 <__svfscanf_r+0x984>
   249a0:	9cc08014 	ori	r19,r19,512
   249a4:	01800204 	movi	r6,8
   249a8:	9881000c 	andi	r2,r19,1024
   249ac:	1002be26 	beq	r2,zero,254a8 <__svfscanf_r+0x1484>
   249b0:	00be9fc4 	movi	r2,-1409
   249b4:	98a6703a 	and	r19,r19,r2
   249b8:	003fad06 	br	24870 <__svfscanf_r+0x84c>
   249bc:	e00b883a 	mov	r5,fp
   249c0:	8009883a 	mov	r4,r16
   249c4:	d9800315 	stw	r6,12(sp)
   249c8:	002a3d40 	call	2a3d4 <__srefill_r>
   249cc:	d9800317 	ldw	r6,12(sp)
   249d0:	103fb026 	beq	r2,zero,24894 <__svfscanf_r+0x870>
   249d4:	003fb106 	br	2489c <__svfscanf_r+0x878>
   249d8:	b000011e 	bne	r22,zero,249e0 <__svfscanf_r+0x9bc>
   249dc:	05bfffc4 	movi	r22,-1
   249e0:	a080004c 	andi	r2,r20,1
   249e4:	a500040c 	andi	r20,r20,16
   249e8:	10026e1e 	bne	r2,zero,253a4 <__svfscanf_r+0x1380>
   249ec:	e1000017 	ldw	r4,0(fp)
   249f0:	d8c00b04 	addi	r3,sp,44
   249f4:	20800003 	ldbu	r2,0(r4)
   249f8:	10809f04 	addi	r2,r2,636
   249fc:	10c5883a 	add	r2,r2,r3
   24a00:	10bf6883 	ldbu	r2,-606(r2)
   24a04:	10803fcc 	andi	r2,r2,255
   24a08:	1080201c 	xori	r2,r2,128
   24a0c:	10bfe004 	addi	r2,r2,-128
   24a10:	a001b826 	beq	r20,zero,250f4 <__svfscanf_r+0x10d0>
   24a14:	103e1426 	beq	r2,zero,24268 <__svfscanf_r+0x244>
   24a18:	e0800117 	ldw	r2,4(fp)
   24a1c:	21000044 	addi	r4,r4,1
   24a20:	e1000015 	stw	r4,0(fp)
   24a24:	10bfffc4 	addi	r2,r2,-1
   24a28:	e0800115 	stw	r2,4(fp)
   24a2c:	b1000060 	cmpeqi	r4,r22,1
   24a30:	20000f1e 	bne	r4,zero,24a70 <__svfscanf_r+0xa4c>
   24a34:	0080110e 	bge	zero,r2,24a7c <__svfscanf_r+0xa58>
   24a38:	e0800017 	ldw	r2,0(fp)
   24a3c:	d9000b04 	addi	r4,sp,44
   24a40:	10c00003 	ldbu	r3,0(r2)
   24a44:	10800044 	addi	r2,r2,1
   24a48:	18c09f04 	addi	r3,r3,636
   24a4c:	1907883a 	add	r3,r3,r4
   24a50:	18ff6887 	ldb	r3,-606(r3)
   24a54:	18000626 	beq	r3,zero,24a70 <__svfscanf_r+0xa4c>
   24a58:	e0c00117 	ldw	r3,4(fp)
   24a5c:	e0800015 	stw	r2,0(fp)
   24a60:	9cc00044 	addi	r19,r19,1
   24a64:	18bfffc4 	addi	r2,r3,-1
   24a68:	e0800115 	stw	r2,4(fp)
   24a6c:	b4fff11e 	bne	r22,r19,24a34 <__svfscanf_r+0xa10>
   24a70:	94d3883a 	add	r9,r18,r19
   24a74:	4ce5883a 	add	r18,r9,r19
   24a78:	003e1c06 	br	242ec <__svfscanf_r+0x2c8>
   24a7c:	e00b883a 	mov	r5,fp
   24a80:	8009883a 	mov	r4,r16
   24a84:	002a3d40 	call	2a3d4 <__srefill_r>
   24a88:	103feb26 	beq	r2,zero,24a38 <__svfscanf_r+0xa14>
   24a8c:	003ff806 	br	24a70 <__svfscanf_r+0xa4c>
   24a90:	8009883a 	mov	r4,r16
   24a94:	00285fc0 	call	285fc <_localeconv_r>
   24a98:	10800017 	ldw	r2,0(r2)
   24a9c:	b13fffc4 	addi	r4,r22,-1
   24aa0:	21005770 	cmpltui	r4,r4,349
   24aa4:	d8800615 	stw	r2,24(sp)
   24aa8:	2001481e 	bne	r4,zero,24fcc <__svfscanf_r+0xfa8>
   24aac:	b0bfa8c4 	addi	r2,r22,-349
   24ab0:	d8800a15 	stw	r2,40(sp)
   24ab4:	05805744 	movi	r22,349
   24ab8:	0027883a 	mov	r19,zero
   24abc:	0005883a 	mov	r2,zero
   24ac0:	0007883a 	mov	r3,zero
   24ac4:	dc400715 	stw	r17,28(sp)
   24ac8:	dd400815 	stw	r21,32(sp)
   24acc:	8023883a 	mov	r17,r16
   24ad0:	a501e014 	ori	r20,r20,1920
   24ad4:	9821883a 	mov	r16,r19
   24ad8:	d8000b15 	stw	zero,44(sp)
   24adc:	b027883a 	mov	r19,r22
   24ae0:	d8000915 	stw	zero,36(sp)
   24ae4:	d8000515 	stw	zero,20(sp)
   24ae8:	ddc05284 	addi	r23,sp,330
   24aec:	102d883a 	mov	r22,r2
   24af0:	182b883a 	mov	r21,r3
   24af4:	e0800017 	ldw	r2,0(fp)
   24af8:	11400003 	ldbu	r5,0(r2)
   24afc:	28bff544 	addi	r2,r5,-43
   24b00:	10803fcc 	andi	r2,r2,255
   24b04:	118013e8 	cmpgeui	r6,r2,79
   24b08:	3000541e 	bne	r6,zero,24c5c <__svfscanf_r+0xc38>
   24b0c:	100490ba 	slli	r2,r2,2
   24b10:	018000b4 	movhi	r6,2
   24b14:	118d883a 	add	r6,r2,r6
   24b18:	3092c817 	ldw	r2,19232(r6)
   24b1c:	1000683a 	jmp	r2
   24b20:	00024db4 	movhi	zero,2358
   24b24:	00024c5c 	xori	zero,zero,2353
   24b28:	00024db4 	movhi	zero,2358
   24b2c:	00024c5c 	xori	zero,zero,2353
   24b30:	00024c5c 	xori	zero,zero,2353
   24b34:	00024f54 	movui	zero,2365
   24b38:	00024d4c 	andi	zero,zero,2357
   24b3c:	00024d4c 	andi	zero,zero,2357
   24b40:	00024d4c 	andi	zero,zero,2357
   24b44:	00024d4c 	andi	zero,zero,2357
   24b48:	00024d4c 	andi	zero,zero,2357
   24b4c:	00024d4c 	andi	zero,zero,2357
   24b50:	00024d4c 	andi	zero,zero,2357
   24b54:	00024d4c 	andi	zero,zero,2357
   24b58:	00024d4c 	andi	zero,zero,2357
   24b5c:	00024c5c 	xori	zero,zero,2353
   24b60:	00024c5c 	xori	zero,zero,2353
   24b64:	00024c5c 	xori	zero,zero,2353
   24b68:	00024c5c 	xori	zero,zero,2353
   24b6c:	00024c5c 	xori	zero,zero,2353
   24b70:	00024c5c 	xori	zero,zero,2353
   24b74:	00024c5c 	xori	zero,zero,2353
   24b78:	00024da4 	muli	zero,zero,2358
   24b7c:	00024c5c 	xori	zero,zero,2353
   24b80:	00024c5c 	xori	zero,zero,2353
   24b84:	00024c5c 	xori	zero,zero,2353
   24b88:	00024f10 	cmplti	zero,zero,2364
   24b8c:	00024ef4 	movhi	zero,2363
   24b90:	00024c5c 	xori	zero,zero,2353
   24b94:	00024c5c 	xori	zero,zero,2353
   24b98:	00024e00 	call	24e0 <__reset-0x1db20>
   24b9c:	00024c5c 	xori	zero,zero,2353
   24ba0:	00024c5c 	xori	zero,zero,2353
   24ba4:	00024c5c 	xori	zero,zero,2353
   24ba8:	00024c5c 	xori	zero,zero,2353
   24bac:	00024dc8 	cmpgei	zero,zero,2359
   24bb0:	00024c5c 	xori	zero,zero,2353
   24bb4:	00024c5c 	xori	zero,zero,2353
   24bb8:	00024c5c 	xori	zero,zero,2353
   24bbc:	00024c5c 	xori	zero,zero,2353
   24bc0:	00024c5c 	xori	zero,zero,2353
   24bc4:	00024d88 	cmpgei	zero,zero,2358
   24bc8:	00024c5c 	xori	zero,zero,2353
   24bcc:	00024c5c 	xori	zero,zero,2353
   24bd0:	00024c5c 	xori	zero,zero,2353
   24bd4:	00024c5c 	xori	zero,zero,2353
   24bd8:	00024d6c 	andhi	zero,zero,2357
   24bdc:	00024c5c 	xori	zero,zero,2353
   24be0:	00024c5c 	xori	zero,zero,2353
   24be4:	00024c5c 	xori	zero,zero,2353
   24be8:	00024c5c 	xori	zero,zero,2353
   24bec:	00024c5c 	xori	zero,zero,2353
   24bf0:	00024c5c 	xori	zero,zero,2353
   24bf4:	00024c5c 	xori	zero,zero,2353
   24bf8:	00024da4 	muli	zero,zero,2358
   24bfc:	00024c5c 	xori	zero,zero,2353
   24c00:	00024c5c 	xori	zero,zero,2353
   24c04:	00024c5c 	xori	zero,zero,2353
   24c08:	00024f10 	cmplti	zero,zero,2364
   24c0c:	00024ef4 	movhi	zero,2363
   24c10:	00024c5c 	xori	zero,zero,2353
   24c14:	00024c5c 	xori	zero,zero,2353
   24c18:	00024e00 	call	24e0 <__reset-0x1db20>
   24c1c:	00024c5c 	xori	zero,zero,2353
   24c20:	00024c5c 	xori	zero,zero,2353
   24c24:	00024c5c 	xori	zero,zero,2353
   24c28:	00024c5c 	xori	zero,zero,2353
   24c2c:	00024dc8 	cmpgei	zero,zero,2359
   24c30:	00024c5c 	xori	zero,zero,2353
   24c34:	00024c5c 	xori	zero,zero,2353
   24c38:	00024c5c 	xori	zero,zero,2353
   24c3c:	00024c5c 	xori	zero,zero,2353
   24c40:	00024c5c 	xori	zero,zero,2353
   24c44:	00024d88 	cmpgei	zero,zero,2358
   24c48:	00024c5c 	xori	zero,zero,2353
   24c4c:	00024c5c 	xori	zero,zero,2353
   24c50:	00024c5c 	xori	zero,zero,2353
   24c54:	00024c5c 	xori	zero,zero,2353
   24c58:	00024d6c 	andhi	zero,zero,2357
   24c5c:	d8800617 	ldw	r2,24(sp)
   24c60:	29803fcc 	andi	r6,r5,255
   24c64:	10800003 	ldbu	r2,0(r2)
   24c68:	3080111e 	bne	r6,r2,24cb0 <__svfscanf_r+0xc8c>
   24c6c:	a080800c 	andi	r2,r20,512
   24c70:	10000f26 	beq	r2,zero,24cb0 <__svfscanf_r+0xc8c>
   24c74:	00bf5fc4 	movi	r2,-641
   24c78:	a0a8703a 	and	r20,r20,r2
   24c7c:	dd800515 	stw	r22,20(sp)
   24c80:	b9400005 	stb	r5,0(r23)
   24c84:	9cffffc4 	addi	r19,r19,-1
   24c88:	bdc00044 	addi	r23,r23,1
   24c8c:	e0800117 	ldw	r2,4(fp)
   24c90:	94800044 	addi	r18,r18,1
   24c94:	10bfffc4 	addi	r2,r2,-1
   24c98:	e0800115 	stw	r2,4(fp)
   24c9c:	0080b60e 	bge	zero,r2,24f78 <__svfscanf_r+0xf54>
   24ca0:	e0800017 	ldw	r2,0(fp)
   24ca4:	10800044 	addi	r2,r2,1
   24ca8:	e0800015 	stw	r2,0(fp)
   24cac:	983f911e 	bne	r19,zero,24af4 <__svfscanf_r+0xad0>
   24cb0:	dd800615 	stw	r22,24(sp)
   24cb4:	d8800617 	ldw	r2,24(sp)
   24cb8:	8027883a 	mov	r19,r16
   24cbc:	a807883a 	mov	r3,r21
   24cc0:	8821883a 	mov	r16,r17
   24cc4:	dd400817 	ldw	r21,32(sp)
   24cc8:	dc400717 	ldw	r17,28(sp)
   24ccc:	1000c91e 	bne	r2,zero,24ff4 <__svfscanf_r+0xfd0>
   24cd0:	19bfffc4 	addi	r6,r3,-1
   24cd4:	318000a8 	cmpgeui	r6,r6,2
   24cd8:	3002cf26 	beq	r6,zero,25818 <__svfscanf_r+0x17f4>
   24cdc:	98c03fcc 	andi	r3,r19,255
   24ce0:	18c0201c 	xori	r3,r3,128
   24ce4:	18ffe004 	addi	r3,r3,-128
   24ce8:	18bfffc4 	addi	r2,r3,-1
   24cec:	108001e8 	cmpgeui	r2,r2,7
   24cf0:	1000531e 	bne	r2,zero,24e40 <__svfscanf_r+0xe1c>
   24cf4:	188000d0 	cmplti	r2,r3,3
   24cf8:	1002ea1e 	bne	r2,zero,258a4 <__svfscanf_r+0x1880>
   24cfc:	18c000d8 	cmpnei	r3,r3,3
   24d00:	b82d883a 	mov	r22,r23
   24d04:	18004e26 	beq	r3,zero,24e40 <__svfscanf_r+0xe1c>
   24d08:	b17fffc7 	ldb	r5,-1(r22)
   24d0c:	e00d883a 	mov	r6,fp
   24d10:	8009883a 	mov	r4,r16
   24d14:	b5bfffc4 	addi	r22,r22,-1
   24d18:	002ed280 	call	2ed28 <_ungetc_r>
   24d1c:	b4c5883a 	add	r2,r22,r19
   24d20:	15c5c83a 	sub	r2,r2,r23
   24d24:	10803fcc 	andi	r2,r2,255
   24d28:	1080201c 	xori	r2,r2,128
   24d2c:	10bfe004 	addi	r2,r2,-128
   24d30:	b487883a 	add	r3,r22,r18
   24d34:	10800108 	cmpgei	r2,r2,4
   24d38:	1dc7c83a 	sub	r3,r3,r23
   24d3c:	103ff21e 	bne	r2,zero,24d08 <__svfscanf_r+0xce4>
   24d40:	1825883a 	mov	r18,r3
   24d44:	b02f883a 	mov	r23,r22
   24d48:	00003d06 	br	24e40 <__svfscanf_r+0xe1c>
   24d4c:	80803fcc 	andi	r2,r16,255
   24d50:	1080201c 	xori	r2,r2,128
   24d54:	10bfe004 	addi	r2,r2,-128
   24d58:	a885883a 	add	r2,r21,r2
   24d5c:	103fd41e 	bne	r2,zero,24cb0 <__svfscanf_r+0xc8c>
   24d60:	00bf9fc4 	movi	r2,-385
   24d64:	a0a8703a 	and	r20,r20,r2
   24d68:	003fc506 	br	24c80 <__svfscanf_r+0xc5c>
   24d6c:	80803fcc 	andi	r2,r16,255
   24d70:	1080201c 	xori	r2,r2,128
   24d74:	10bfe004 	addi	r2,r2,-128
   24d78:	108001e0 	cmpeqi	r2,r2,7
   24d7c:	103fcc26 	beq	r2,zero,24cb0 <__svfscanf_r+0xc8c>
   24d80:	04000204 	movi	r16,8
   24d84:	003fbe06 	br	24c80 <__svfscanf_r+0xc5c>
   24d88:	80803fcc 	andi	r2,r16,255
   24d8c:	1080201c 	xori	r2,r2,128
   24d90:	10bfe004 	addi	r2,r2,-128
   24d94:	108001a0 	cmpeqi	r2,r2,6
   24d98:	103fc526 	beq	r2,zero,24cb0 <__svfscanf_r+0xc8c>
   24d9c:	040001c4 	movi	r16,7
   24da0:	003fb706 	br	24c80 <__svfscanf_r+0xc5c>
   24da4:	a8800060 	cmpeqi	r2,r21,1
   24da8:	103fc126 	beq	r2,zero,24cb0 <__svfscanf_r+0xc8c>
   24dac:	05400084 	movi	r21,2
   24db0:	003fb306 	br	24c80 <__svfscanf_r+0xc5c>
   24db4:	a080200c 	andi	r2,r20,128
   24db8:	103fbd26 	beq	r2,zero,24cb0 <__svfscanf_r+0xc8c>
   24dbc:	00bfdfc4 	movi	r2,-129
   24dc0:	a0a8703a 	and	r20,r20,r2
   24dc4:	003fae06 	br	24c80 <__svfscanf_r+0xc5c>
   24dc8:	a800761e 	bne	r21,zero,24fa4 <__svfscanf_r+0xf80>
   24dcc:	b000031e 	bne	r22,zero,24ddc <__svfscanf_r+0xdb8>
   24dd0:	a081c00c 	andi	r2,r20,1792
   24dd4:	1081c018 	cmpnei	r2,r2,1792
   24dd8:	10025026 	beq	r2,zero,2571c <__svfscanf_r+0x16f8>
   24ddc:	80803fcc 	andi	r2,r16,255
   24de0:	1080201c 	xori	r2,r2,128
   24de4:	10bfe004 	addi	r2,r2,-128
   24de8:	11800060 	cmpeqi	r6,r2,1
   24dec:	3000021e 	bne	r6,zero,24df8 <__svfscanf_r+0xdd4>
   24df0:	10800118 	cmpnei	r2,r2,4
   24df4:	103fae1e 	bne	r2,zero,24cb0 <__svfscanf_r+0xc8c>
   24df8:	84000044 	addi	r16,r16,1
   24dfc:	003fa006 	br	24c80 <__svfscanf_r+0xc5c>
   24e00:	80803fcc 	andi	r2,r16,255
   24e04:	1080201c 	xori	r2,r2,128
   24e08:	10bfe004 	addi	r2,r2,-128
   24e0c:	1000601e 	bne	r2,zero,24f90 <__svfscanf_r+0xf6c>
   24e10:	b000721e 	bne	r22,zero,24fdc <__svfscanf_r+0xfb8>
   24e14:	a081c00c 	andi	r2,r20,1792
   24e18:	1081c018 	cmpnei	r2,r2,1792
   24e1c:	10023b26 	beq	r2,zero,2570c <__svfscanf_r+0x16e8>
   24e20:	a807883a 	mov	r3,r21
   24e24:	18bfffc4 	addi	r2,r3,-1
   24e28:	dd800615 	stw	r22,24(sp)
   24e2c:	108000b0 	cmpltui	r2,r2,2
   24e30:	8821883a 	mov	r16,r17
   24e34:	dd400817 	ldw	r21,32(sp)
   24e38:	dc400717 	ldw	r17,28(sp)
   24e3c:	1002761e 	bne	r2,zero,25818 <__svfscanf_r+0x17f4>
   24e40:	a080400c 	andi	r2,r20,256
   24e44:	10000e26 	beq	r2,zero,24e80 <__svfscanf_r+0xe5c>
   24e48:	a081000c 	andi	r2,r20,1024
   24e4c:	10027e1e 	bne	r2,zero,25848 <__svfscanf_r+0x1824>
   24e50:	b97fffc7 	ldb	r5,-1(r23)
   24e54:	bdbfffc4 	addi	r22,r23,-1
   24e58:	94ffffc4 	addi	r19,r18,-1
   24e5c:	28801960 	cmpeqi	r2,r5,101
   24e60:	1000021e 	bne	r2,zero,24e6c <__svfscanf_r+0xe48>
   24e64:	28801160 	cmpeqi	r2,r5,69
   24e68:	1001c426 	beq	r2,zero,2557c <__svfscanf_r+0x1558>
   24e6c:	e00d883a 	mov	r6,fp
   24e70:	8009883a 	mov	r4,r16
   24e74:	002ed280 	call	2ed28 <_ungetc_r>
   24e78:	9825883a 	mov	r18,r19
   24e7c:	b02f883a 	mov	r23,r22
   24e80:	a080040c 	andi	r2,r20,16
   24e84:	103d191e 	bne	r2,zero,242ec <__svfscanf_r+0x2c8>
   24e88:	a081800c 	andi	r2,r20,1536
   24e8c:	b8000005 	stb	zero,0(r23)
   24e90:	10810018 	cmpnei	r2,r2,1024
   24e94:	10021326 	beq	r2,zero,256e4 <__svfscanf_r+0x16c0>
   24e98:	d8800917 	ldw	r2,36(sp)
   24e9c:	1001e81e 	bne	r2,zero,25640 <__svfscanf_r+0x161c>
   24ea0:	8009883a 	mov	r4,r16
   24ea4:	000d883a 	mov	r6,zero
   24ea8:	d9405284 	addi	r5,sp,330
   24eac:	002be840 	call	2be84 <_strtod_r>
   24eb0:	1027883a 	mov	r19,r2
   24eb4:	d8800217 	ldw	r2,8(sp)
   24eb8:	a100004c 	andi	r4,r20,1
   24ebc:	15800104 	addi	r22,r2,4
   24ec0:	20019826 	beq	r4,zero,25524 <__svfscanf_r+0x1500>
   24ec4:	10800017 	ldw	r2,0(r2)
   24ec8:	14c00015 	stw	r19,0(r2)
   24ecc:	10c00115 	stw	r3,4(r2)
   24ed0:	d8800117 	ldw	r2,4(sp)
   24ed4:	dd800215 	stw	r22,8(sp)
   24ed8:	ad400044 	addi	r21,r21,1
   24edc:	10800044 	addi	r2,r2,1
   24ee0:	d8800115 	stw	r2,4(sp)
   24ee4:	a8bfffc3 	ldbu	r2,-1(r21)
   24ee8:	d8800d15 	stw	r2,52(sp)
   24eec:	103c6f1e 	bne	r2,zero,240ac <__svfscanf_r+0x88>
   24ef0:	003cdd06 	br	24268 <__svfscanf_r+0x244>
   24ef4:	80803fcc 	andi	r2,r16,255
   24ef8:	1080201c 	xori	r2,r2,128
   24efc:	10bfe004 	addi	r2,r2,-128
   24f00:	108000a0 	cmpeqi	r2,r2,2
   24f04:	103f6a26 	beq	r2,zero,24cb0 <__svfscanf_r+0xc8c>
   24f08:	040000c4 	movi	r16,3
   24f0c:	003f5c06 	br	24c80 <__svfscanf_r+0xc5c>
   24f10:	a081400c 	andi	r2,r20,1280
   24f14:	10810020 	cmpeqi	r2,r2,1024
   24f18:	1000031e 	bne	r2,zero,24f28 <__svfscanf_r+0xf04>
   24f1c:	a081000c 	andi	r2,r20,1024
   24f20:	103f6326 	beq	r2,zero,24cb0 <__svfscanf_r+0xc8c>
   24f24:	b0022b26 	beq	r22,zero,257d4 <__svfscanf_r+0x17b0>
   24f28:	a080800c 	andi	r2,r20,512
   24f2c:	1000041e 	bne	r2,zero,24f40 <__svfscanf_r+0xf1c>
   24f30:	d8800517 	ldw	r2,20(sp)
   24f34:	ddc00b15 	stw	r23,44(sp)
   24f38:	b085c83a 	sub	r2,r22,r2
   24f3c:	d8800915 	stw	r2,36(sp)
   24f40:	00be1fc4 	movi	r2,-1921
   24f44:	a0a8703a 	and	r20,r20,r2
   24f48:	a5006014 	ori	r20,r20,384
   24f4c:	002d883a 	mov	r22,zero
   24f50:	003f4b06 	br	24c80 <__svfscanf_r+0xc5c>
   24f54:	a080400c 	andi	r2,r20,256
   24f58:	103f7c26 	beq	r2,zero,24d4c <__svfscanf_r+0xd28>
   24f5c:	00bfdfc4 	movi	r2,-129
   24f60:	a0a8703a 	and	r20,r20,r2
   24f64:	d8800a17 	ldw	r2,40(sp)
   24f68:	b5800044 	addi	r22,r22,1
   24f6c:	1000921e 	bne	r2,zero,251b8 <__svfscanf_r+0x1194>
   24f70:	9cffffc4 	addi	r19,r19,-1
   24f74:	003f4506 	br	24c8c <__svfscanf_r+0xc68>
   24f78:	e00b883a 	mov	r5,fp
   24f7c:	8809883a 	mov	r4,r17
   24f80:	002a3d40 	call	2a3d4 <__srefill_r>
   24f84:	103f4a1e 	bne	r2,zero,24cb0 <__svfscanf_r+0xc8c>
   24f88:	983eda1e 	bne	r19,zero,24af4 <__svfscanf_r+0xad0>
   24f8c:	003f4806 	br	24cb0 <__svfscanf_r+0xc8c>
   24f90:	118000e0 	cmpeqi	r6,r2,3
   24f94:	303f981e 	bne	r6,zero,24df8 <__svfscanf_r+0xdd4>
   24f98:	10800158 	cmpnei	r2,r2,5
   24f9c:	103f9626 	beq	r2,zero,24df8 <__svfscanf_r+0xdd4>
   24fa0:	003f4306 	br	24cb0 <__svfscanf_r+0xc8c>
   24fa4:	a88000a0 	cmpeqi	r2,r21,2
   24fa8:	103f8c26 	beq	r2,zero,24ddc <__svfscanf_r+0xdb8>
   24fac:	054000c4 	movi	r21,3
   24fb0:	003f3306 	br	24c80 <__svfscanf_r+0xc5c>
   24fb4:	e00b883a 	mov	r5,fp
   24fb8:	8009883a 	mov	r4,r16
   24fbc:	002a3d40 	call	2a3d4 <__srefill_r>
   24fc0:	103d1526 	beq	r2,zero,24418 <__svfscanf_r+0x3f4>
   24fc4:	94e5883a 	add	r18,r18,r19
   24fc8:	003cc806 	br	242ec <__svfscanf_r+0x2c8>
   24fcc:	d8000a15 	stw	zero,40(sp)
   24fd0:	003eb906 	br	24ab8 <__svfscanf_r+0xa94>
   24fd4:	d8000515 	stw	zero,20(sp)
   24fd8:	003dc406 	br	246ec <__svfscanf_r+0x6c8>
   24fdc:	8027883a 	mov	r19,r16
   24fe0:	a807883a 	mov	r3,r21
   24fe4:	8821883a 	mov	r16,r17
   24fe8:	dd400817 	ldw	r21,32(sp)
   24fec:	dc400717 	ldw	r17,28(sp)
   24ff0:	dd800615 	stw	r22,24(sp)
   24ff4:	00bfbfc4 	movi	r2,-257
   24ff8:	a0a8703a 	and	r20,r20,r2
   24ffc:	003f3406 	br	24cd0 <__svfscanf_r+0xcac>
   25000:	a0015b1e 	bne	r20,zero,25570 <__svfscanf_r+0x154c>
   25004:	d8c00217 	ldw	r3,8(sp)
   25008:	1dc00017 	ldw	r23,0(r3)
   2500c:	18c00104 	addi	r3,r3,4
   25010:	d8c00215 	stw	r3,8(sp)
   25014:	1000351e 	bne	r2,zero,250ec <__svfscanf_r+0x10c8>
   25018:	0027883a 	mov	r19,zero
   2501c:	00285740 	call	28574 <__locale_mb_cur_max>
   25020:	14fcc626 	beq	r2,r19,2433c <__svfscanf_r+0x318>
   25024:	e0800017 	ldw	r2,0(fp)
   25028:	e0c00117 	ldw	r3,4(fp)
   2502c:	99009f04 	addi	r4,r19,636
   25030:	d9400b04 	addi	r5,sp,44
   25034:	2149883a 	add	r4,r4,r5
   25038:	11400003 	ldbu	r5,0(r2)
   2503c:	18ffffc4 	addi	r3,r3,-1
   25040:	10800044 	addi	r2,r2,1
   25044:	217fa885 	stb	r5,-350(r4)
   25048:	e0c00115 	stw	r3,4(fp)
   2504c:	e0800015 	stw	r2,0(fp)
   25050:	8c4000d8 	cmpnei	r17,r17,3
   25054:	9cc00044 	addi	r19,r19,1
   25058:	8800031e 	bne	r17,zero,25068 <__svfscanf_r+0x1044>
   2505c:	d8801017 	ldw	r2,64(sp)
   25060:	10800120 	cmpeqi	r2,r2,4
   25064:	1001d91e 	bne	r2,zero,257cc <__svfscanf_r+0x17a8>
   25068:	d8801004 	addi	r2,sp,64
   2506c:	d8001015 	stw	zero,64(sp)
   25070:	d8001115 	stw	zero,68(sp)
   25074:	d8800015 	stw	r2,0(sp)
   25078:	980f883a 	mov	r7,r19
   2507c:	d9805284 	addi	r6,sp,330
   25080:	b80b883a 	mov	r5,r23
   25084:	8009883a 	mov	r4,r16
   25088:	00288b80 	call	288b8 <_mbrtowc_r>
   2508c:	1023883a 	mov	r17,r2
   25090:	10bfffe0 	cmpeqi	r2,r2,-1
   25094:	103ca91e 	bne	r2,zero,2433c <__svfscanf_r+0x318>
   25098:	8801a41e 	bne	r17,zero,2572c <__svfscanf_r+0x1708>
   2509c:	b8000015 	stw	zero,0(r23)
   250a0:	0009883a 	mov	r4,zero
   250a4:	00284d40 	call	284d4 <iswspace>
   250a8:	1001d11e 	bne	r2,zero,257f0 <__svfscanf_r+0x17cc>
   250ac:	94e5883a 	add	r18,r18,r19
   250b0:	b5bfffc4 	addi	r22,r22,-1
   250b4:	a001b31e 	bne	r20,zero,25784 <__svfscanf_r+0x1760>
   250b8:	bdc00104 	addi	r23,r23,4
   250bc:	0027883a 	mov	r19,zero
   250c0:	e0800117 	ldw	r2,4(fp)
   250c4:	0081b10e 	bge	zero,r2,2578c <__svfscanf_r+0x1768>
   250c8:	e0c00017 	ldw	r3,0(fp)
   250cc:	00800134 	movhi	r2,4
   250d0:	18c00003 	ldbu	r3,0(r3)
   250d4:	1885883a 	add	r2,r3,r2
   250d8:	10a4cb43 	ldbu	r2,-27859(r2)
   250dc:	1080020c 	andi	r2,r2,8
   250e0:	1000011e 	bne	r2,zero,250e8 <__svfscanf_r+0x10c4>
   250e4:	b03fcd1e 	bne	r22,zero,2501c <__svfscanf_r+0xff8>
   250e8:	a03c801e 	bne	r20,zero,242ec <__svfscanf_r+0x2c8>
   250ec:	b8000015 	stw	zero,0(r23)
   250f0:	0000a806 	br	25394 <__svfscanf_r+0x1370>
   250f4:	d8c00217 	ldw	r3,8(sp)
   250f8:	1d000017 	ldw	r20,0(r3)
   250fc:	18c00104 	addi	r3,r3,4
   25100:	d8c00215 	stw	r3,8(sp)
   25104:	103c5826 	beq	r2,zero,24268 <__svfscanf_r+0x244>
   25108:	e0800117 	ldw	r2,4(fp)
   2510c:	21400044 	addi	r5,r4,1
   25110:	e1400015 	stw	r5,0(fp)
   25114:	10bfffc4 	addi	r2,r2,-1
   25118:	e0800115 	stw	r2,4(fp)
   2511c:	21000003 	ldbu	r4,0(r4)
   25120:	b0800060 	cmpeqi	r2,r22,1
   25124:	a5c00044 	addi	r23,r20,1
   25128:	a1000005 	stb	r4,0(r20)
   2512c:	10001b1e 	bne	r2,zero,2519c <__svfscanf_r+0x1178>
   25130:	a5ad883a 	add	r22,r20,r22
   25134:	00001006 	br	25178 <__svfscanf_r+0x1154>
   25138:	e0c00017 	ldw	r3,0(fp)
   2513c:	d9000b04 	addi	r4,sp,44
   25140:	18800003 	ldbu	r2,0(r3)
   25144:	19400044 	addi	r5,r3,1
   25148:	10809f04 	addi	r2,r2,636
   2514c:	1105883a 	add	r2,r2,r4
   25150:	10bf6887 	ldb	r2,-606(r2)
   25154:	10000f26 	beq	r2,zero,25194 <__svfscanf_r+0x1170>
   25158:	e0800117 	ldw	r2,4(fp)
   2515c:	e1400015 	stw	r5,0(fp)
   25160:	bdc00044 	addi	r23,r23,1
   25164:	10bfffc4 	addi	r2,r2,-1
   25168:	e0800115 	stw	r2,4(fp)
   2516c:	18800003 	ldbu	r2,0(r3)
   25170:	b8bfffc5 	stb	r2,-1(r23)
   25174:	bd800726 	beq	r23,r22,25194 <__svfscanf_r+0x1170>
   25178:	e0800117 	ldw	r2,4(fp)
   2517c:	00bfee16 	blt	zero,r2,25138 <__svfscanf_r+0x1114>
   25180:	e00b883a 	mov	r5,fp
   25184:	8009883a 	mov	r4,r16
   25188:	002a3d40 	call	2a3d4 <__srefill_r>
   2518c:	103fea26 	beq	r2,zero,25138 <__svfscanf_r+0x1114>
   25190:	a5fc6a26 	beq	r20,r23,2433c <__svfscanf_r+0x318>
   25194:	bd27c83a 	sub	r19,r23,r20
   25198:	bd3c3326 	beq	r23,r20,24268 <__svfscanf_r+0x244>
   2519c:	d8800117 	ldw	r2,4(sp)
   251a0:	94d3883a 	add	r9,r18,r19
   251a4:	b8000005 	stb	zero,0(r23)
   251a8:	10800044 	addi	r2,r2,1
   251ac:	d8800115 	stw	r2,4(sp)
   251b0:	4ce5883a 	add	r18,r9,r19
   251b4:	003c4d06 	br	242ec <__svfscanf_r+0x2c8>
   251b8:	d8800a17 	ldw	r2,40(sp)
   251bc:	10bfffc4 	addi	r2,r2,-1
   251c0:	d8800a15 	stw	r2,40(sp)
   251c4:	003eb106 	br	24c8c <__svfscanf_r+0xc68>
   251c8:	0029883a 	mov	r20,zero
   251cc:	00000606 	br	251e8 <__svfscanf_r+0x11c4>
   251d0:	1887883a 	add	r3,r3,r2
   251d4:	e0c00015 	stw	r3,0(fp)
   251d8:	a0a9883a 	add	r20,r20,r2
   251dc:	98a7c83a 	sub	r19,r19,r2
   251e0:	002a3d40 	call	2a3d4 <__srefill_r>
   251e4:	1001431e 	bne	r2,zero,256f4 <__svfscanf_r+0x16d0>
   251e8:	e0800117 	ldw	r2,4(fp)
   251ec:	e0c00017 	ldw	r3,0(fp)
   251f0:	e00b883a 	mov	r5,fp
   251f4:	8009883a 	mov	r4,r16
   251f8:	14fff516 	blt	r2,r19,251d0 <__svfscanf_r+0x11ac>
   251fc:	14c5c83a 	sub	r2,r2,r19
   25200:	1cc7883a 	add	r3,r3,r19
   25204:	a4e9883a 	add	r20,r20,r19
   25208:	e0800115 	stw	r2,4(fp)
   2520c:	e0c00015 	stw	r3,0(fp)
   25210:	9525883a 	add	r18,r18,r20
   25214:	003c3506 	br	242ec <__svfscanf_r+0x2c8>
   25218:	d8c00217 	ldw	r3,8(sp)
   2521c:	1d000017 	ldw	r20,0(r3)
   25220:	1cc00104 	addi	r19,r3,4
   25224:	1001941e 	bne	r2,zero,25878 <__svfscanf_r+0x1854>
   25228:	e0800117 	ldw	r2,4(fp)
   2522c:	21400044 	addi	r5,r4,1
   25230:	e1400015 	stw	r5,0(fp)
   25234:	10bfffc4 	addi	r2,r2,-1
   25238:	e0800115 	stw	r2,4(fp)
   2523c:	21000003 	ldbu	r4,0(r4)
   25240:	b0800058 	cmpnei	r2,r22,1
   25244:	a5c00044 	addi	r23,r20,1
   25248:	a1000005 	stb	r4,0(r20)
   2524c:	a5ad883a 	add	r22,r20,r22
   25250:	1000111e 	bne	r2,zero,25298 <__svfscanf_r+0x1274>
   25254:	00018e06 	br	25890 <__svfscanf_r+0x186c>
   25258:	e0c00017 	ldw	r3,0(fp)
   2525c:	00800134 	movhi	r2,4
   25260:	19400003 	ldbu	r5,0(r3)
   25264:	19800044 	addi	r6,r3,1
   25268:	2885883a 	add	r2,r5,r2
   2526c:	10a4cb43 	ldbu	r2,-27859(r2)
   25270:	1080020c 	andi	r2,r2,8
   25274:	10000e1e 	bne	r2,zero,252b0 <__svfscanf_r+0x128c>
   25278:	e0800117 	ldw	r2,4(fp)
   2527c:	e1800015 	stw	r6,0(fp)
   25280:	bdc00044 	addi	r23,r23,1
   25284:	10bfffc4 	addi	r2,r2,-1
   25288:	e0800115 	stw	r2,4(fp)
   2528c:	18800003 	ldbu	r2,0(r3)
   25290:	b8bfffc5 	stb	r2,-1(r23)
   25294:	bd800626 	beq	r23,r22,252b0 <__svfscanf_r+0x128c>
   25298:	e0800117 	ldw	r2,4(fp)
   2529c:	00bfee16 	blt	zero,r2,25258 <__svfscanf_r+0x1234>
   252a0:	e00b883a 	mov	r5,fp
   252a4:	8009883a 	mov	r4,r16
   252a8:	002a3d40 	call	2a3d4 <__srefill_r>
   252ac:	103fea26 	beq	r2,zero,25258 <__svfscanf_r+0x1234>
   252b0:	bd29c83a 	sub	r20,r23,r20
   252b4:	9525883a 	add	r18,r18,r20
   252b8:	d8800117 	ldw	r2,4(sp)
   252bc:	b8000005 	stb	zero,0(r23)
   252c0:	dcc00215 	stw	r19,8(sp)
   252c4:	10800044 	addi	r2,r2,1
   252c8:	d8800115 	stw	r2,4(sp)
   252cc:	003c0706 	br	242ec <__svfscanf_r+0x2c8>
   252d0:	a000c51e 	bne	r20,zero,255e8 <__svfscanf_r+0x15c4>
   252d4:	d8800217 	ldw	r2,8(sp)
   252d8:	15800017 	ldw	r22,0(r2)
   252dc:	10800104 	addi	r2,r2,4
   252e0:	d8800215 	stw	r2,8(sp)
   252e4:	002f883a 	mov	r23,zero
   252e8:	00285740 	call	28574 <__locale_mb_cur_max>
   252ec:	15fc1326 	beq	r2,r23,2433c <__svfscanf_r+0x318>
   252f0:	e0800017 	ldw	r2,0(fp)
   252f4:	e0c00117 	ldw	r3,4(fp)
   252f8:	b9009f04 	addi	r4,r23,636
   252fc:	d9400b04 	addi	r5,sp,44
   25300:	2149883a 	add	r4,r4,r5
   25304:	11400003 	ldbu	r5,0(r2)
   25308:	18ffffc4 	addi	r3,r3,-1
   2530c:	10800044 	addi	r2,r2,1
   25310:	217fa885 	stb	r5,-350(r4)
   25314:	e0c00115 	stw	r3,4(fp)
   25318:	e0800015 	stw	r2,0(fp)
   2531c:	8c4000d8 	cmpnei	r17,r17,3
   25320:	bdc00044 	addi	r23,r23,1
   25324:	8800031e 	bne	r17,zero,25334 <__svfscanf_r+0x1310>
   25328:	d8801017 	ldw	r2,64(sp)
   2532c:	10800120 	cmpeqi	r2,r2,4
   25330:	1000e41e 	bne	r2,zero,256c4 <__svfscanf_r+0x16a0>
   25334:	d8801004 	addi	r2,sp,64
   25338:	d8001015 	stw	zero,64(sp)
   2533c:	d8001115 	stw	zero,68(sp)
   25340:	d8800015 	stw	r2,0(sp)
   25344:	b80f883a 	mov	r7,r23
   25348:	d9805284 	addi	r6,sp,330
   2534c:	b00b883a 	mov	r5,r22
   25350:	8009883a 	mov	r4,r16
   25354:	00288b80 	call	288b8 <_mbrtowc_r>
   25358:	1023883a 	mov	r17,r2
   2535c:	10bfffe0 	cmpeqi	r2,r2,-1
   25360:	103bf61e 	bne	r2,zero,2433c <__svfscanf_r+0x318>
   25364:	8800961e 	bne	r17,zero,255c0 <__svfscanf_r+0x159c>
   25368:	a000011e 	bne	r20,zero,25370 <__svfscanf_r+0x134c>
   2536c:	b0000015 	stw	zero,0(r22)
   25370:	95e5883a 	add	r18,r18,r23
   25374:	9cffffc4 	addi	r19,r19,-1
   25378:	a000011e 	bne	r20,zero,25380 <__svfscanf_r+0x135c>
   2537c:	b5800104 	addi	r22,r22,4
   25380:	e0800117 	ldw	r2,4(fp)
   25384:	002f883a 	mov	r23,zero
   25388:	0080910e 	bge	zero,r2,255d0 <__svfscanf_r+0x15ac>
   2538c:	983fd61e 	bne	r19,zero,252e8 <__svfscanf_r+0x12c4>
   25390:	a03bd61e 	bne	r20,zero,242ec <__svfscanf_r+0x2c8>
   25394:	d8800117 	ldw	r2,4(sp)
   25398:	10800044 	addi	r2,r2,1
